Component: ARM Compiler 5.06 update 6 (build 750) Tool: armlink [4d35ed]

==============================================================================

Section Cross References

    startup_stm32g431xx.o(RESET) refers to startup_stm32g431xx.o(STACK) for __initial_sp
    startup_stm32g431xx.o(RESET) refers to startup_stm32g431xx.o(.text) for Reset_Handler
    startup_stm32g431xx.o(RESET) refers to stm32g4xx_mc_it.o(i.HardFault_Handler) for HardFault_Handler
    startup_stm32g431xx.o(RESET) refers to stm32g4xx_mc_it.o(i.SysTick_Handler) for SysTick_Handler
    startup_stm32g431xx.o(RESET) refers to stm32g4xx_mc_it.o(i.DMA1_Channel1_IRQHandler) for DMA1_Channel1_IRQHandler
    startup_stm32g431xx.o(RESET) refers to stm32g4xx_mc_it.o(i.ADC1_2_IRQHandler) for ADC1_2_IRQHandler
    startup_stm32g431xx.o(RESET) refers to stm32g4xx_mc_it.o(i.TIM1_BRK_TIM15_IRQHandler) for TIM1_BRK_TIM15_IRQHandler
    startup_stm32g431xx.o(RESET) refers to stm32g4xx_mc_it.o(i.TIM1_UP_TIM16_IRQHandler) for TIM1_UP_TIM16_IRQHandler
    startup_stm32g431xx.o(RESET) refers to stm32g4xx_mc_it.o(i.USART2_IRQHandler) for USART2_IRQHandler
    startup_stm32g431xx.o(RESET) refers to stm32g4xx_mc_it.o(i.EXTI15_10_IRQHandler) for EXTI15_10_IRQHandler
    startup_stm32g431xx.o(.text) refers to system_stm32g4xx.o(i.SystemInit) for SystemInit
    startup_stm32g431xx.o(.text) refers to entry.o(.ARM.Collect$$$$00000000) for __main
    main.o(i.SystemClock_Config) refers to memseta.o(.text) for __aeabi_memclr4
    main.o(i.SystemClock_Config) refers to stm32g4xx_hal_pwr_ex.o(i.HAL_PWREx_ControlVoltageScaling) for HAL_PWREx_ControlVoltageScaling
    main.o(i.SystemClock_Config) refers to stm32g4xx_hal_rcc.o(i.HAL_RCC_OscConfig) for HAL_RCC_OscConfig
    main.o(i.SystemClock_Config) refers to stm32g4xx_hal_rcc.o(i.HAL_RCC_ClockConfig) for HAL_RCC_ClockConfig
    main.o(i.SystemClock_Config) refers to stm32g4xx_hal_rcc_ex.o(i.HAL_RCCEx_PeriphCLKConfig) for HAL_RCCEx_PeriphCLKConfig
    main.o(i.SystemClock_Config) refers to stm32g4xx_hal_rcc.o(i.HAL_RCC_EnableCSS) for HAL_RCC_EnableCSS
    main.o(i.main) refers to stm32g4xx_hal.o(i.HAL_Init) for HAL_Init
    main.o(i.main) refers to memseta.o(.text) for __aeabi_memclr4
    main.o(i.main) refers to stm32g4xx_hal_pwr_ex.o(i.HAL_PWREx_ControlVoltageScaling) for HAL_PWREx_ControlVoltageScaling
    main.o(i.main) refers to stm32g4xx_hal_rcc.o(i.HAL_RCC_OscConfig) for HAL_RCC_OscConfig
    main.o(i.main) refers to stm32g4xx_hal_rcc.o(i.HAL_RCC_ClockConfig) for HAL_RCC_ClockConfig
    main.o(i.main) refers to stm32g4xx_hal_rcc_ex.o(i.HAL_RCCEx_PeriphCLKConfig) for HAL_RCCEx_PeriphCLKConfig
    main.o(i.main) refers to stm32g4xx_hal_rcc.o(i.HAL_RCC_EnableCSS) for HAL_RCC_EnableCSS
    main.o(i.main) refers to stm32g4xx_hal_gpio.o(i.HAL_GPIO_WritePin) for HAL_GPIO_WritePin
    main.o(i.main) refers to stm32g4xx_hal_gpio.o(i.HAL_GPIO_Init) for HAL_GPIO_Init
    main.o(i.main) refers to stm32g4xx_hal_adc.o(i.HAL_ADC_Init) for HAL_ADC_Init
    main.o(i.main) refers to stm32g4xx_hal_adc_ex.o(i.HAL_ADCEx_MultiModeConfigChannel) for HAL_ADCEx_MultiModeConfigChannel
    main.o(i.main) refers to stm32g4xx_hal_adc_ex.o(i.HAL_ADCEx_InjectedConfigChannel) for HAL_ADCEx_InjectedConfigChannel
    main.o(i.main) refers to stm32g4xx_hal_adc.o(i.HAL_ADC_ConfigChannel) for HAL_ADC_ConfigChannel
    main.o(i.main) refers to stm32g4xx_hal_cordic.o(i.HAL_CORDIC_Init) for HAL_CORDIC_Init
    main.o(i.main) refers to stm32g4xx_hal_tim.o(i.HAL_TIM_Base_Init) for HAL_TIM_Base_Init
    main.o(i.main) refers to stm32g4xx_hal_tim.o(i.HAL_TIM_PWM_Init) for HAL_TIM_PWM_Init
    main.o(i.main) refers to stm32g4xx_hal_tim.o(i.HAL_TIM_SlaveConfigSynchro) for HAL_TIM_SlaveConfigSynchro
    main.o(i.main) refers to stm32g4xx_hal_tim_ex.o(i.HAL_TIMEx_MasterConfigSynchronization) for HAL_TIMEx_MasterConfigSynchronization
    main.o(i.main) refers to stm32g4xx_hal_tim_ex.o(i.HAL_TIMEx_ConfigBreakInput) for HAL_TIMEx_ConfigBreakInput
    main.o(i.main) refers to stm32g4xx_hal_tim.o(i.HAL_TIM_PWM_ConfigChannel) for HAL_TIM_PWM_ConfigChannel
    main.o(i.main) refers to stm32g4xx_hal_tim_ex.o(i.HAL_TIMEx_ConfigBreakDeadTime) for HAL_TIMEx_ConfigBreakDeadTime
    main.o(i.main) refers to stm32g4xx_hal_msp.o(i.HAL_TIM_MspPostInit) for HAL_TIM_MspPostInit
    main.o(i.main) refers to stm32g4xx_hal_uart.o(i.HAL_UART_Init) for HAL_UART_Init
    main.o(i.main) refers to stm32g4xx_hal_uart_ex.o(i.HAL_UARTEx_SetTxFifoThreshold) for HAL_UARTEx_SetTxFifoThreshold
    main.o(i.main) refers to stm32g4xx_hal_uart_ex.o(i.HAL_UARTEx_SetRxFifoThreshold) for HAL_UARTEx_SetRxFifoThreshold
    main.o(i.main) refers to stm32g4xx_hal_uart_ex.o(i.HAL_UARTEx_DisableFifoMode) for HAL_UARTEx_DisableFifoMode
    main.o(i.main) refers to motorcontrol.o(i.MX_MotorControl_Init) for MX_MotorControl_Init
    main.o(i.main) refers to stm32g4xx_hal_cortex.o(i.HAL_NVIC_SetPriority) for HAL_NVIC_SetPriority
    main.o(i.main) refers to stm32g4xx_hal_cortex.o(i.HAL_NVIC_EnableIRQ) for HAL_NVIC_EnableIRQ
    main.o(i.main) refers to main.o(.bss) for .bss
    motorcontrol.o(i.MX_MotorControl_Init) refers to stm32g4xx_hal_rcc.o(i.HAL_RCC_GetHCLKFreq) for HAL_RCC_GetHCLKFreq
    motorcontrol.o(i.MX_MotorControl_Init) refers to stm32g4xx_hal_cortex.o(i.HAL_SYSTICK_Config) for HAL_SYSTICK_Config
    motorcontrol.o(i.MX_MotorControl_Init) refers to mc_tasks.o(i.MCboot) for MCboot
    motorcontrol.o(i.MX_MotorControl_Init) refers to mc_tasks.o(i.mc_lock_pins) for mc_lock_pins
    motorcontrol.o(i.MX_MotorControl_Init) refers to ui_task.o(i.UI_TaskInit) for UI_TaskInit
    motorcontrol.o(i.MX_MotorControl_Init) refers to motorcontrol.o(.data) for .data
    motorcontrol.o(i.MX_MotorControl_Init) refers to motorcontrol.o(.constdata) for .constdata
    mc_api.o(i.MC_AcknowledgeFaultMotor1) refers to mc_interface.o(i.MCI_FaultAcknowledged) for MCI_FaultAcknowledged
    mc_api.o(i.MC_AcknowledgeFaultMotor1) refers to motorcontrol.o(.data) for pMCI
    mc_api.o(i.MC_Clear_IqdrefMotor1) refers to mc_interface.o(i.MCI_Clear_Iqdref) for MCI_Clear_Iqdref
    mc_api.o(i.MC_Clear_IqdrefMotor1) refers to motorcontrol.o(.data) for pMCI
    mc_api.o(i.MC_GetCommandStateMotor1) refers to mc_interface.o(i.MCI_IsCommandAcknowledged) for MCI_IsCommandAcknowledged
    mc_api.o(i.MC_GetCommandStateMotor1) refers to motorcontrol.o(.data) for pMCI
    mc_api.o(i.MC_GetControlModeMotor1) refers to mc_interface.o(i.MCI_GetControlMode) for MCI_GetControlMode
    mc_api.o(i.MC_GetControlModeMotor1) refers to motorcontrol.o(.data) for pMCI
    mc_api.o(i.MC_GetCurrentFaultsMotor1) refers to mc_interface.o(i.MCI_GetCurrentFaults) for MCI_GetCurrentFaults
    mc_api.o(i.MC_GetCurrentFaultsMotor1) refers to motorcontrol.o(.data) for pMCI
    mc_api.o(i.MC_GetElAngledppMotor1) refers to mc_interface.o(i.MCI_GetElAngledpp) for MCI_GetElAngledpp
    mc_api.o(i.MC_GetElAngledppMotor1) refers to motorcontrol.o(.data) for pMCI
    mc_api.o(i.MC_GetIabMotor1) refers to mc_interface.o(i.MCI_GetIab) for MCI_GetIab
    mc_api.o(i.MC_GetIabMotor1) refers to motorcontrol.o(.data) for pMCI
    mc_api.o(i.MC_GetIalphabetaMotor1) refers to mc_interface.o(i.MCI_GetIalphabeta) for MCI_GetIalphabeta
    mc_api.o(i.MC_GetIalphabetaMotor1) refers to motorcontrol.o(.data) for pMCI
    mc_api.o(i.MC_GetImposedDirectionMotor1) refers to mc_interface.o(i.MCI_GetImposedMotorDirection) for MCI_GetImposedMotorDirection
    mc_api.o(i.MC_GetImposedDirectionMotor1) refers to motorcontrol.o(.data) for pMCI
    mc_api.o(i.MC_GetIqdMotor1) refers to mc_interface.o(i.MCI_GetIqd) for MCI_GetIqd
    mc_api.o(i.MC_GetIqdMotor1) refers to motorcontrol.o(.data) for pMCI
    mc_api.o(i.MC_GetIqdrefMotor1) refers to mc_interface.o(i.MCI_GetIqdref) for MCI_GetIqdref
    mc_api.o(i.MC_GetIqdrefMotor1) refers to motorcontrol.o(.data) for pMCI
    mc_api.o(i.MC_GetLastRampFinalSpeedMotor1) refers to mc_interface.o(i.MCI_GetLastRampFinalSpeed) for MCI_GetLastRampFinalSpeed
    mc_api.o(i.MC_GetLastRampFinalSpeedMotor1) refers to motorcontrol.o(.data) for pMCI
    mc_api.o(i.MC_GetMecSpeedAverageMotor1) refers to mc_interface.o(i.MCI_GetAvrgMecSpeedUnit) for MCI_GetAvrgMecSpeedUnit
    mc_api.o(i.MC_GetMecSpeedAverageMotor1) refers to motorcontrol.o(.data) for pMCI
    mc_api.o(i.MC_GetMecSpeedReferenceMotor1) refers to mc_interface.o(i.MCI_GetMecSpeedRefUnit) for MCI_GetMecSpeedRefUnit
    mc_api.o(i.MC_GetMecSpeedReferenceMotor1) refers to motorcontrol.o(.data) for pMCI
    mc_api.o(i.MC_GetOccurredFaultsMotor1) refers to mc_interface.o(i.MCI_GetOccurredFaults) for MCI_GetOccurredFaults
    mc_api.o(i.MC_GetOccurredFaultsMotor1) refers to motorcontrol.o(.data) for pMCI
    mc_api.o(i.MC_GetPhaseCurrentAmplitudeMotor1) refers to mc_interface.o(i.MCI_GetPhaseCurrentAmplitude) for MCI_GetPhaseCurrentAmplitude
    mc_api.o(i.MC_GetPhaseCurrentAmplitudeMotor1) refers to motorcontrol.o(.data) for pMCI
    mc_api.o(i.MC_GetPhaseVoltageAmplitudeMotor1) refers to mc_interface.o(i.MCI_GetPhaseVoltageAmplitude) for MCI_GetPhaseVoltageAmplitude
    mc_api.o(i.MC_GetPhaseVoltageAmplitudeMotor1) refers to motorcontrol.o(.data) for pMCI
    mc_api.o(i.MC_GetSTMStateMotor1) refers to mc_interface.o(i.MCI_GetSTMState) for MCI_GetSTMState
    mc_api.o(i.MC_GetSTMStateMotor1) refers to motorcontrol.o(.data) for pMCI
    mc_api.o(i.MC_GetSpeedSensorReliabilityMotor1) refers to mc_interface.o(i.MCI_GetSpdSensorReliability) for MCI_GetSpdSensorReliability
    mc_api.o(i.MC_GetSpeedSensorReliabilityMotor1) refers to motorcontrol.o(.data) for pMCI
    mc_api.o(i.MC_GetTerefMotor1) refers to mc_interface.o(i.MCI_GetTeref) for MCI_GetTeref
    mc_api.o(i.MC_GetTerefMotor1) refers to motorcontrol.o(.data) for pMCI
    mc_api.o(i.MC_GetValphabetaMotor1) refers to mc_interface.o(i.MCI_GetValphabeta) for MCI_GetValphabeta
    mc_api.o(i.MC_GetValphabetaMotor1) refers to motorcontrol.o(.data) for pMCI
    mc_api.o(i.MC_GetVqdMotor1) refers to mc_interface.o(i.MCI_GetVqd) for MCI_GetVqd
    mc_api.o(i.MC_GetVqdMotor1) refers to motorcontrol.o(.data) for pMCI
    mc_api.o(i.MC_HasRampCompletedMotor1) refers to mc_interface.o(i.MCI_RampCompleted) for MCI_RampCompleted
    mc_api.o(i.MC_HasRampCompletedMotor1) refers to motorcontrol.o(.data) for pMCI
    mc_api.o(i.MC_ProgramSpeedRampMotor1) refers to mc_interface.o(i.MCI_ExecSpeedRamp) for MCI_ExecSpeedRamp
    mc_api.o(i.MC_ProgramSpeedRampMotor1) refers to motorcontrol.o(.data) for pMCI
    mc_api.o(i.MC_ProgramTorqueRampMotor1) refers to mc_interface.o(i.MCI_ExecTorqueRamp) for MCI_ExecTorqueRamp
    mc_api.o(i.MC_ProgramTorqueRampMotor1) refers to motorcontrol.o(.data) for pMCI
    mc_api.o(i.MC_SetCurrentReferenceMotor1) refers to mc_interface.o(i.MCI_SetCurrentReferences) for MCI_SetCurrentReferences
    mc_api.o(i.MC_SetCurrentReferenceMotor1) refers to motorcontrol.o(.data) for pMCI
    mc_api.o(i.MC_SetIdrefMotor1) refers to mc_interface.o(i.MCI_SetIdref) for MCI_SetIdref
    mc_api.o(i.MC_SetIdrefMotor1) refers to motorcontrol.o(.data) for pMCI
    mc_api.o(i.MC_StartMotor1) refers to mc_interface.o(i.MCI_StartMotor) for MCI_StartMotor
    mc_api.o(i.MC_StartMotor1) refers to motorcontrol.o(.data) for pMCI
    mc_api.o(i.MC_StopMotor1) refers to mc_interface.o(i.MCI_StopMotor) for MCI_StopMotor
    mc_api.o(i.MC_StopMotor1) refers to motorcontrol.o(.data) for pMCI
    mc_api.o(i.MC_StopRampMotor1) refers to mc_interface.o(i.MCI_StopRamp) for MCI_StopRamp
    mc_api.o(i.MC_StopRampMotor1) refers to motorcontrol.o(.data) for pMCI
    mc_api.o(i.MC_StopSpeedRampMotor1) refers to mc_interface.o(i.MCI_StopSpeedRamp) for MCI_StopSpeedRamp
    mc_api.o(i.MC_StopSpeedRampMotor1) refers to motorcontrol.o(.data) for pMCI
    motor_control_protocol.o(i.MCP_Init) refers to frame_communication_protocol.o(i.FCP_SetClient) for FCP_SetClient
    motor_control_protocol.o(i.MCP_Init) refers to motor_control_protocol.o(i.MCP_WaitNextFrame) for MCP_WaitNextFrame
    motor_control_protocol.o(i.MCP_Init) refers to motor_control_protocol.o(i.MCP_OnTimeOut) for MCP_OnTimeOut
    motor_control_protocol.o(i.MCP_Init) refers to motor_control_protocol.o(i.MCP_ReceivedFrame) for MCP_ReceivedFrame
    motor_control_protocol.o(i.MCP_Init) refers to motor_control_protocol.o(i.MCP_SentFrame) for MCP_SentFrame
    motor_control_protocol.o(i.MCP_OnTimeOut) refers to motor_control_protocol.o(i.MCP_WaitNextFrame) for MCP_WaitNextFrame
    motor_control_protocol.o(i.MCP_ReceivedFrame) refers to user_interface.o(i.UI_SetReg) for UI_SetReg
    motor_control_protocol.o(i.MCP_ReceivedFrame) refers to user_interface.o(i.UI_GetReg) for UI_GetReg
    motor_control_protocol.o(i.MCP_ReceivedFrame) refers to user_interface.o(i.UI_ExecCmd) for UI_ExecCmd
    motor_control_protocol.o(i.MCP_ReceivedFrame) refers to user_interface.o(i.UI_ExecSpeedRamp) for UI_ExecSpeedRamp
    motor_control_protocol.o(i.MCP_ReceivedFrame) refers to user_interface.o(i.UI_ExecTorqueRamp) for UI_ExecTorqueRamp
    motor_control_protocol.o(i.MCP_ReceivedFrame) refers to user_interface.o(i.UI_GetRevupData) for UI_GetRevupData
    motor_control_protocol.o(i.MCP_ReceivedFrame) refers to user_interface.o(i.UI_SetRevupData) for UI_SetRevupData
    motor_control_protocol.o(i.MCP_ReceivedFrame) refers to user_interface.o(i.UI_SetCurrentReferences) for UI_SetCurrentReferences
    motor_control_protocol.o(i.MCP_ReceivedFrame) refers to user_interface.o(i.UI_GetMPInfo) for UI_GetMPInfo
    motor_control_protocol.o(i.MCP_ReceivedFrame) refers to motor_control_protocol.o(.data) for .data
    motor_control_protocol.o(i.MCP_SendATRMessage) refers to user_interface.o(i.UI_GetReg) for UI_GetReg
    motor_control_protocol.o(i.MCP_SentFrame) refers to motor_control_protocol.o(i.MCP_WaitNextFrame) for MCP_WaitNextFrame
    mc_config.o(.data) refers to mc_config.o(.data) for PQD_MotorPowMeasM1
    mc_config.o(.data) refers to r1_g4xx_pwm_curr_fdbk.o(i.R1_GetPhaseCurrents) for R1_GetPhaseCurrents
    mc_config.o(.data) refers to r1_g4xx_pwm_curr_fdbk.o(i.R1_SwitchOffPWM) for R1_SwitchOffPWM
    mc_config.o(.data) refers to r1_g4xx_pwm_curr_fdbk.o(i.R1_SwitchOnPWM) for R1_SwitchOnPWM
    mc_config.o(.data) refers to r1_g4xx_pwm_curr_fdbk.o(i.R1_CurrentReadingPolarization) for R1_CurrentReadingPolarization
    mc_config.o(.data) refers to r1_g4xx_pwm_curr_fdbk.o(i.R1_TurnOnLowSides) for R1_TurnOnLowSides
    mc_config.o(.data) refers to r1_g4xx_pwm_curr_fdbk.o(i.R1_CalcDutyCycles) for R1_CalcDutyCycles
    mc_config.o(.data) refers to r1_g4xx_pwm_curr_fdbk.o(i.R1_IsOverCurrentOccurred) for R1_IsOverCurrentOccurred
    mc_config.o(.data) refers to mc_parameters.o(.constdata) for R1_ParamsM1
    mc_config.o(.data) refers to mc_config.o(.data) for STO_PLL_M1
    mc_config.o(.data) refers to mc_config.o(.data) for STO_PLL_M1
    mc_config.o(.data) refers to sto_pll_speed_pos_fdbk.o(.text) for STO_PLL_ForceConvergency1
    mc_config.o(.data) refers to mc_config.o(.bss) for RealBusVoltageSensorFilterBufferM1
    mc_tasks.o(i.FOC_CalcCurrRef) refers to speed_torq_ctrl.o(i.STC_CalcTorqueReference) for STC_CalcTorqueReference
    mc_tasks.o(i.FOC_CalcCurrRef) refers to mc_tasks.o(.bss) for .bss
    mc_tasks.o(i.FOC_CalcCurrRef) refers to mc_tasks.o(.data) for .data
    mc_tasks.o(i.FOC_Clear) refers to pid_regulator.o(i.PID_SetIntegralTerm) for PID_SetIntegralTerm
    mc_tasks.o(i.FOC_Clear) refers to speed_torq_ctrl.o(i.STC_Clear) for STC_Clear
    mc_tasks.o(i.FOC_Clear) refers to pwm_curr_fdbk.o(i.PWMC_SwitchOffPWM) for PWMC_SwitchOffPWM
    mc_tasks.o(i.FOC_Clear) refers to mc_tasks.o(.bss) for .bss
    mc_tasks.o(i.FOC_Clear) refers to mc_tasks.o(.data) for .data
    mc_tasks.o(i.GetMCI) refers to mc_tasks.o(.data) for .data
    mc_tasks.o(i.GetMCT) refers to mc_tasks.o(.bss) for .bss
    mc_tasks.o(i.MC_RunMotorControlTasks) refers to mc_tasks.o(i.MC_Scheduler) for MC_Scheduler
    mc_tasks.o(i.MC_RunMotorControlTasks) refers to mc_tasks.o(i.TSK_SafetyTask) for TSK_SafetyTask
    mc_tasks.o(i.MC_RunMotorControlTasks) refers to ui_task.o(i.UI_Scheduler) for UI_Scheduler
    mc_tasks.o(i.MC_RunMotorControlTasks) refers to mc_tasks.o(.data) for .data
    mc_tasks.o(i.MC_Scheduler) refers to mc_tasks.o(i.TSK_MediumFrequencyTaskM1) for TSK_MediumFrequencyTaskM1
    mc_tasks.o(i.MC_Scheduler) refers to mc_tasks.o(.data) for .data
    mc_tasks.o(i.MCboot) refers to state_machine.o(i.STM_Init) for STM_Init
    mc_tasks.o(i.MCboot) refers to r1_g4xx_pwm_curr_fdbk.o(i.R1_Init) for R1_Init
    mc_tasks.o(i.MCboot) refers to pwm_common.o(i.startTimers) for startTimers
    mc_tasks.o(i.MCboot) refers to pid_regulator.o(i.PID_HandleInit) for PID_HandleInit
    mc_tasks.o(i.MCboot) refers to sto_pll_speed_pos_fdbk.o(.text) for STO_PLL_Init
    mc_tasks.o(i.MCboot) refers to speed_torq_ctrl.o(i.STC_Init) for STC_Init
    mc_tasks.o(i.MCboot) refers to virtual_speed_sensor.o(i.VSS_Init) for VSS_Init
    mc_tasks.o(i.MCboot) refers to revup_ctrl.o(.text) for RUC_Init
    mc_tasks.o(i.MCboot) refers to r_divider_bus_voltage_sensor.o(i.RVBS_Init) for RVBS_Init
    mc_tasks.o(i.MCboot) refers to ntc_temperature_sensor.o(i.NTC_Init) for NTC_Init
    mc_tasks.o(i.MCboot) refers to ramp_ext_mngr.o(i.REMNG_Init) for REMNG_Init
    mc_tasks.o(i.MCboot) refers to mc_tasks.o(i.FOC_Clear) for FOC_Clear
    mc_tasks.o(i.MCboot) refers to speed_torq_ctrl.o(i.STC_GetDefaultIqdref) for STC_GetDefaultIqdref
    mc_tasks.o(i.MCboot) refers to mc_interface.o(i.MCI_Init) for MCI_Init
    mc_tasks.o(i.MCboot) refers to speed_torq_ctrl.o(i.STC_GetMecSpeedRefUnitDefault) for STC_GetMecSpeedRefUnitDefault
    mc_tasks.o(i.MCboot) refers to mc_interface.o(i.MCI_ExecSpeedRamp) for MCI_ExecSpeedRamp
    mc_tasks.o(i.MCboot) refers to mc_tasks.o(.data) for .data
    mc_tasks.o(i.MCboot) refers to mc_config.o(.data) for CircleLimitationM1
    mc_tasks.o(i.MCboot) refers to mc_config.o(.data) for PWM_Handle_M1
    mc_tasks.o(i.MCboot) refers to mc_config.o(.data) for PIDSpeedHandle_M1
    mc_tasks.o(i.MCboot) refers to mc_config.o(.data) for SpeednTorqCtrlM1
    mc_tasks.o(i.MCboot) refers to mc_config.o(.data) for STO_PLL_M1
    mc_tasks.o(i.MCboot) refers to mc_config.o(.data) for VirtualSpeedSensorM1
    mc_tasks.o(i.MCboot) refers to mc_config.o(.data) for STO_M1
    mc_tasks.o(i.MCboot) refers to mc_config.o(.data) for RevUpControlM1
    mc_tasks.o(i.MCboot) refers to mc_config.o(.data) for PIDIqHandle_M1
    mc_tasks.o(i.MCboot) refers to mc_config.o(.data) for PIDIdHandle_M1
    mc_tasks.o(i.MCboot) refers to mc_config.o(.data) for RealBusVoltageSensorParamsM1
    mc_tasks.o(i.MCboot) refers to mc_config.o(.data) for PQD_MotorPowMeasM1
    mc_tasks.o(i.MCboot) refers to mc_tasks.o(.bss) for .bss
    mc_tasks.o(i.MCboot) refers to mc_config.o(.data) for TempSensorParamsM1
    mc_tasks.o(i.MCboot) refers to mc_config.o(.data) for RampExtMngrHFParamsM1
    mc_tasks.o(i.TSK_ChargeBootCapDelayHasElapsedM1) refers to mc_tasks.o(.data) for .data
    mc_tasks.o(i.TSK_HardwareFaultTask) refers to r1_g4xx_pwm_curr_fdbk.o(i.R1_SwitchOffPWM) for R1_SwitchOffPWM
    mc_tasks.o(i.TSK_HardwareFaultTask) refers to state_machine.o(i.STM_FaultProcessing) for STM_FaultProcessing
    mc_tasks.o(i.TSK_HardwareFaultTask) refers to mc_tasks.o(.data) for .data
    mc_tasks.o(i.TSK_HighFrequencyTask) refers to ramp_ext_mngr.o(i.REMNG_RampCompleted) for REMNG_RampCompleted
    mc_tasks.o(i.TSK_HighFrequencyTask) refers to ramp_ext_mngr.o(i.REMNG_Calc) for REMNG_Calc
    mc_tasks.o(i.TSK_HighFrequencyTask) refers to speed_torq_ctrl.o(i.STC_GetSpeedSensor) for STC_GetSpeedSensor
    mc_tasks.o(i.TSK_HighFrequencyTask) refers to speed_pos_fdbk.o(i.SPD_GetElAngle) for SPD_GetElAngle
    mc_tasks.o(i.TSK_HighFrequencyTask) refers to speed_pos_fdbk.o(i.SPD_GetInstElSpeedDpp) for SPD_GetInstElSpeedDpp
    mc_tasks.o(i.TSK_HighFrequencyTask) refers to pwm_curr_fdbk.o(i.PWMC_GetPhaseCurrents) for PWMC_GetPhaseCurrents
    mc_tasks.o(i.TSK_HighFrequencyTask) refers to regular_conversion_manager.o(i.RCM_ExecNextConv) for RCM_ExecNextConv
    mc_tasks.o(i.TSK_HighFrequencyTask) refers to mc_math.o(i.MCM_Clarke) for MCM_Clarke
    mc_tasks.o(i.TSK_HighFrequencyTask) refers to mc_math.o(i.MCM_Park) for MCM_Park
    mc_tasks.o(i.TSK_HighFrequencyTask) refers to pid_regulator.o(i.PI_Controller) for PI_Controller
    mc_tasks.o(i.TSK_HighFrequencyTask) refers to circle_limitation.o(i.Circle_Limitation) for Circle_Limitation
    mc_tasks.o(i.TSK_HighFrequencyTask) refers to mc_math.o(i.MCM_Rev_Park) for MCM_Rev_Park
    mc_tasks.o(i.TSK_HighFrequencyTask) refers to pwm_curr_fdbk.o(i.PWMC_SetPhaseVoltage) for PWMC_SetPhaseVoltage
    mc_tasks.o(i.TSK_HighFrequencyTask) refers to regular_conversion_manager.o(i.RCM_ReadOngoingConv) for RCM_ReadOngoingConv
    mc_tasks.o(i.TSK_HighFrequencyTask) refers to revup_ctrl.o(.ccmram) for RUC_FirstAccelerationStageReached
    mc_tasks.o(i.TSK_HighFrequencyTask) refers to bus_voltage_sensor.o(i.VBS_GetAvBusVoltage_d) for VBS_GetAvBusVoltage_d
    mc_tasks.o(i.TSK_HighFrequencyTask) refers to sto_pll_speed_pos_fdbk.o(.ccmram) for STO_PLL_CalcElAngle
    mc_tasks.o(i.TSK_HighFrequencyTask) refers to state_machine.o(i.STM_GetState) for STM_GetState
    mc_tasks.o(i.TSK_HighFrequencyTask) refers to state_machine.o(i.STM_FaultProcessing) for STM_FaultProcessing
    mc_tasks.o(i.TSK_HighFrequencyTask) refers to virtual_speed_sensor.o(i.VSS_CalcElAngle) for VSS_CalcElAngle
    mc_tasks.o(i.TSK_HighFrequencyTask) refers to mc_tasks.o(.bss) for .bss
    mc_tasks.o(i.TSK_HighFrequencyTask) refers to mc_tasks.o(.data) for .data
    mc_tasks.o(i.TSK_HighFrequencyTask) refers to mc_config.o(.data) for RevUpControlM1
    mc_tasks.o(i.TSK_HighFrequencyTask) refers to mc_config.o(.data) for STO_PLL_M1
    mc_tasks.o(i.TSK_HighFrequencyTask) refers to mc_config.o(.data) for VirtualSpeedSensorM1
    mc_tasks.o(i.TSK_MediumFrequencyTaskM1) refers to sto_pll_speed_pos_fdbk.o(.text) for STO_PLL_CalcAvrgMecSpeedUnit
    mc_tasks.o(i.TSK_MediumFrequencyTaskM1) refers to pqd_motor_power_measurement.o(i.PQD_CalcElMotorPower) for PQD_CalcElMotorPower
    mc_tasks.o(i.TSK_MediumFrequencyTaskM1) refers to state_machine.o(i.STM_GetState) for STM_GetState
    mc_tasks.o(i.TSK_MediumFrequencyTaskM1) refers to mc_interface.o(i.MCI_GetImposedMotorDirection) for MCI_GetImposedMotorDirection
    mc_tasks.o(i.TSK_MediumFrequencyTaskM1) refers to revup_ctrl.o(.text) for RUC_Clear
    mc_tasks.o(i.TSK_MediumFrequencyTaskM1) refers to r1_g4xx_pwm_curr_fdbk.o(i.R1_TurnOnLowSides) for R1_TurnOnLowSides
    mc_tasks.o(i.TSK_MediumFrequencyTaskM1) refers to mc_tasks.o(i.TSK_SetChargeBootCapDelayM1) for TSK_SetChargeBootCapDelayM1
    mc_tasks.o(i.TSK_MediumFrequencyTaskM1) refers to state_machine.o(i.STM_NextState) for STM_NextState
    mc_tasks.o(i.TSK_MediumFrequencyTaskM1) refers to mc_tasks.o(i.TSK_ChargeBootCapDelayHasElapsedM1) for TSK_ChargeBootCapDelayHasElapsedM1
    mc_tasks.o(i.TSK_MediumFrequencyTaskM1) refers to pwm_curr_fdbk.o(i.PWMC_CurrentReadingCalibr) for PWMC_CurrentReadingCalibr
    mc_tasks.o(i.TSK_MediumFrequencyTaskM1) refers to speed_torq_ctrl.o(i.STC_SetSpeedSensor) for STC_SetSpeedSensor
    mc_tasks.o(i.TSK_MediumFrequencyTaskM1) refers to mc_tasks.o(i.FOC_Clear) for FOC_Clear
    mc_tasks.o(i.TSK_MediumFrequencyTaskM1) refers to r1_g4xx_pwm_curr_fdbk.o(i.R1_SwitchOnPWM) for R1_SwitchOnPWM
    mc_tasks.o(i.TSK_MediumFrequencyTaskM1) refers to speed_torq_ctrl.o(i.STC_CalcTorqueReference) for STC_CalcTorqueReference
    mc_tasks.o(i.TSK_MediumFrequencyTaskM1) refers to virtual_speed_sensor.o(i.VSS_CalcAvrgMecSpeedUnit) for VSS_CalcAvrgMecSpeedUnit
    mc_tasks.o(i.TSK_MediumFrequencyTaskM1) refers to revup_ctrl.o(.ccmram) for RUC_FirstAccelerationStageReached
    mc_tasks.o(i.TSK_MediumFrequencyTaskM1) refers to virtual_speed_sensor.o(i.VSS_SetStartTransition) for VSS_SetStartTransition
    mc_tasks.o(i.TSK_MediumFrequencyTaskM1) refers to speed_pos_fdbk.o(i.SPD_GetElAngle) for SPD_GetElAngle
    mc_tasks.o(i.TSK_MediumFrequencyTaskM1) refers to mc_math.o(i.MCM_Park) for MCM_Park
    mc_tasks.o(i.TSK_MediumFrequencyTaskM1) refers to ramp_ext_mngr.o(i.REMNG_Init) for REMNG_Init
    mc_tasks.o(i.TSK_MediumFrequencyTaskM1) refers to ramp_ext_mngr.o(i.REMNG_ExecRamp) for REMNG_ExecRamp
    mc_tasks.o(i.TSK_MediumFrequencyTaskM1) refers to state_machine.o(i.STM_FaultProcessing) for STM_FaultProcessing
    mc_tasks.o(i.TSK_MediumFrequencyTaskM1) refers to virtual_speed_sensor.o(i.VSS_TransitionEnded) for VSS_TransitionEnded
    mc_tasks.o(i.TSK_MediumFrequencyTaskM1) refers to pid_regulator.o(i.PID_GetKIDivisor) for PID_GetKIDivisor
    mc_tasks.o(i.TSK_MediumFrequencyTaskM1) refers to pid_regulator.o(i.PID_SetIntegralTerm) for PID_SetIntegralTerm
    mc_tasks.o(i.TSK_MediumFrequencyTaskM1) refers to mc_tasks.o(i.FOC_InitAdditionalMethods) for FOC_InitAdditionalMethods
    mc_tasks.o(i.TSK_MediumFrequencyTaskM1) refers to mc_tasks.o(i.FOC_CalcCurrRef) for FOC_CalcCurrRef
    mc_tasks.o(i.TSK_MediumFrequencyTaskM1) refers to speed_torq_ctrl.o(i.STC_ForceSpeedReferenceToCurrentSpeed) for STC_ForceSpeedReferenceToCurrentSpeed
    mc_tasks.o(i.TSK_MediumFrequencyTaskM1) refers to mc_interface.o(i.MCI_ExecBufferedCommands) for MCI_ExecBufferedCommands
    mc_tasks.o(i.TSK_MediumFrequencyTaskM1) refers to r1_g4xx_pwm_curr_fdbk.o(i.R1_SwitchOffPWM) for R1_SwitchOffPWM
    mc_tasks.o(i.TSK_MediumFrequencyTaskM1) refers to motor_power_measurement.o(i.MPM_Clear) for MPM_Clear
    mc_tasks.o(i.TSK_MediumFrequencyTaskM1) refers to mc_tasks.o(i.TSK_SetStopPermanencyTimeM1) for TSK_SetStopPermanencyTimeM1
    mc_tasks.o(i.TSK_MediumFrequencyTaskM1) refers to mc_tasks.o(i.TSK_StopPermanencyTimeHasElapsedM1) for TSK_StopPermanencyTimeHasElapsedM1
    mc_tasks.o(i.TSK_MediumFrequencyTaskM1) refers to virtual_speed_sensor.o(i.VSS_Clear) for VSS_Clear
    mc_tasks.o(i.TSK_MediumFrequencyTaskM1) refers to mc_config.o(.data) for STO_PLL_M1
    mc_tasks.o(i.TSK_MediumFrequencyTaskM1) refers to mc_tasks.o(.data) for .data
    mc_tasks.o(i.TSK_MediumFrequencyTaskM1) refers to mc_config.o(.data) for RevUpControlM1
    mc_tasks.o(i.TSK_MediumFrequencyTaskM1) refers to mc_tasks.o(.bss) for .bss
    mc_tasks.o(i.TSK_MediumFrequencyTaskM1) refers to mc_config.o(.data) for VirtualSpeedSensorM1
    mc_tasks.o(i.TSK_SafetyTask) refers to mc_tasks.o(i.TSK_SafetyTask_PWMOFF) for TSK_SafetyTask_PWMOFF
    mc_tasks.o(i.TSK_SafetyTask) refers to regular_conversion_manager.o(i.RCM_ExecUserConv) for RCM_ExecUserConv
    mc_tasks.o(i.TSK_SafetyTask) refers to mc_tasks.o(.data) for .data
    mc_tasks.o(i.TSK_SafetyTask_PWMOFF) refers to ntc_temperature_sensor.o(i.NTC_CalcAvTemp) for NTC_CalcAvTemp
    mc_tasks.o(i.TSK_SafetyTask_PWMOFF) refers to pwm_curr_fdbk.o(i.PWMC_CheckOverCurrent) for PWMC_CheckOverCurrent
    mc_tasks.o(i.TSK_SafetyTask_PWMOFF) refers to r_divider_bus_voltage_sensor.o(i.RVBS_CalcAvVbus) for RVBS_CalcAvVbus
    mc_tasks.o(i.TSK_SafetyTask_PWMOFF) refers to state_machine.o(i.STM_FaultProcessing) for STM_FaultProcessing
    mc_tasks.o(i.TSK_SafetyTask_PWMOFF) refers to state_machine.o(i.STM_GetState) for STM_GetState
    mc_tasks.o(i.TSK_SafetyTask_PWMOFF) refers to pwm_curr_fdbk.o(i.PWMC_SwitchOffPWM) for PWMC_SwitchOffPWM
    mc_tasks.o(i.TSK_SafetyTask_PWMOFF) refers to mc_tasks.o(i.FOC_Clear) for FOC_Clear
    mc_tasks.o(i.TSK_SafetyTask_PWMOFF) refers to motor_power_measurement.o(i.MPM_Clear) for MPM_Clear
    mc_tasks.o(i.TSK_SafetyTask_PWMOFF) refers to mc_tasks.o(.constdata) for .constdata
    mc_tasks.o(i.TSK_SafetyTask_PWMOFF) refers to mc_tasks.o(.data) for .data
    mc_tasks.o(i.TSK_SetChargeBootCapDelayM1) refers to mc_tasks.o(.data) for .data
    mc_tasks.o(i.TSK_SetStopPermanencyTimeM1) refers to mc_tasks.o(.data) for .data
    mc_tasks.o(i.TSK_StopPermanencyTimeHasElapsedM1) refers to mc_tasks.o(.data) for .data
    regular_conversion_manager.o(i.RCM_ExecNextConv) refers to regular_conversion_manager.o(.data) for .data
    regular_conversion_manager.o(i.RCM_ExecNextConv) refers to regular_conversion_manager.o(.bss) for .bss
    regular_conversion_manager.o(i.RCM_ExecRegularConv) refers to regular_conversion_manager.o(.bss) for .bss
    regular_conversion_manager.o(i.RCM_ExecRegularConv) refers to regular_conversion_manager.o(.data) for .data
    regular_conversion_manager.o(i.RCM_ExecRegularConv) refers to mc_config.o(.data) for PWM_Handle_M1
    regular_conversion_manager.o(i.RCM_ExecUserConv) refers to regular_conversion_manager.o(i.RCM_ExecRegularConv) for RCM_ExecRegularConv
    regular_conversion_manager.o(i.RCM_ExecUserConv) refers to regular_conversion_manager.o(.data) for .data
    regular_conversion_manager.o(i.RCM_ExecUserConv) refers to regular_conversion_manager.o(.bss) for .bss
    regular_conversion_manager.o(i.RCM_GetUserConv) refers to regular_conversion_manager.o(.data) for .data
    regular_conversion_manager.o(i.RCM_GetUserConvState) refers to regular_conversion_manager.o(.data) for .data
    regular_conversion_manager.o(i.RCM_PauseRegularConv) refers to regular_conversion_manager.o(.bss) for .bss
    regular_conversion_manager.o(i.RCM_ReadOngoingConv) refers to regular_conversion_manager.o(.data) for .data
    regular_conversion_manager.o(i.RCM_ReadOngoingConv) refers to regular_conversion_manager.o(.bss) for .bss
    regular_conversion_manager.o(i.RCM_RegisterRegConv) refers to regular_conversion_manager.o(.bss) for .bss
    regular_conversion_manager.o(i.RCM_RegisterRegConv_WithCB) refers to regular_conversion_manager.o(i.RCM_RegisterRegConv) for RCM_RegisterRegConv
    regular_conversion_manager.o(i.RCM_RegisterRegConv_WithCB) refers to regular_conversion_manager.o(.bss) for .bss
    regular_conversion_manager.o(i.RCM_RequestUserConv) refers to regular_conversion_manager.o(.data) for .data
    mc_math.o(i.MCM_Park) refers to mc_math.o(i.MCM_Trig_Functions) for MCM_Trig_Functions
    mc_math.o(i.MCM_Rev_Park) refers to mc_math.o(i.MCM_Trig_Functions) for MCM_Trig_Functions
    mc_interface.o(i.MCI_Clear_Iqdref) refers to speed_torq_ctrl.o(i.STC_GetDefaultIqdref) for STC_GetDefaultIqdref
    mc_interface.o(i.MCI_EncoderAlign) refers to state_machine.o(i.STM_NextState) for STM_NextState
    mc_interface.o(i.MCI_ExecBufferedCommands) refers to speed_torq_ctrl.o(i.STC_SetControlMode) for STC_SetControlMode
    mc_interface.o(i.MCI_ExecBufferedCommands) refers to speed_torq_ctrl.o(i.STC_ExecRamp) for STC_ExecRamp
    mc_interface.o(i.MCI_FaultAcknowledged) refers to state_machine.o(i.STM_FaultAcknowledged) for STM_FaultAcknowledged
    mc_interface.o(i.MCI_GetAvrgMecSpeedUnit) refers to speed_torq_ctrl.o(i.STC_GetSpeedSensor) for STC_GetSpeedSensor
    mc_interface.o(i.MCI_GetAvrgMecSpeedUnit) refers to speed_pos_fdbk.o(i.SPD_GetAvrgMecSpeedUnit) for SPD_GetAvrgMecSpeedUnit
    mc_interface.o(i.MCI_GetCurrentFaults) refers to state_machine.o(i.STM_GetFaultState) for STM_GetFaultState
    mc_interface.o(i.MCI_GetMecSpeedRefUnit) refers to speed_torq_ctrl.o(i.STC_GetMecSpeedRefUnit) for STC_GetMecSpeedRefUnit
    mc_interface.o(i.MCI_GetOccurredFaults) refers to state_machine.o(i.STM_GetFaultState) for STM_GetFaultState
    mc_interface.o(i.MCI_GetPhaseCurrentAmplitude) refers to mc_math.o(i.MCM_Sqrt) for MCM_Sqrt
    mc_interface.o(i.MCI_GetPhaseVoltageAmplitude) refers to mc_math.o(i.MCM_Sqrt) for MCM_Sqrt
    mc_interface.o(i.MCI_GetSTMState) refers to state_machine.o(i.STM_GetState) for STM_GetState
    mc_interface.o(i.MCI_GetSpdSensorReliability) refers to speed_torq_ctrl.o(i.STC_GetSpeedSensor) for STC_GetSpeedSensor
    mc_interface.o(i.MCI_GetSpdSensorReliability) refers to speed_pos_fdbk.o(i.SPD_Check) for SPD_Check
    mc_interface.o(i.MCI_RampCompleted) refers to state_machine.o(i.STM_GetState) for STM_GetState
    mc_interface.o(i.MCI_RampCompleted) refers to speed_torq_ctrl.o(i.STC_RampCompleted) for STC_RampCompleted
    mc_interface.o(i.MCI_StartMotor) refers to state_machine.o(i.STM_NextState) for STM_NextState
    mc_interface.o(i.MCI_StopMotor) refers to state_machine.o(i.STM_NextState) for STM_NextState
    mc_interface.o(i.MCI_StopRamp) refers to speed_torq_ctrl.o(i.STC_StopRamp) for STC_StopRamp
    mc_interface.o(i.MCI_StopSpeedRamp) refers to speed_torq_ctrl.o(i.STC_StopSpeedRamp) for STC_StopSpeedRamp
    stm32g4xx_mc_it.o(i.ADC1_2_IRQHandler) refers to mc_tasks.o(i.TSK_HighFrequencyTask) for TSK_HighFrequencyTask
    stm32g4xx_mc_it.o(i.EXTI15_10_IRQHandler) refers to ui_task.o(i.UI_HandleStartStopButton_cb) for UI_HandleStartStopButton_cb
    stm32g4xx_mc_it.o(i.HardFault_Handler) refers to mc_tasks.o(i.TSK_HardwareFaultTask) for TSK_HardwareFaultTask
    stm32g4xx_mc_it.o(i.HardFault_Handler) refers to usart_frame_communication_protocol.o(i.UFCP_OVR_IRQ_Handler) for UFCP_OVR_IRQ_Handler
    stm32g4xx_mc_it.o(i.HardFault_Handler) refers to ui_task.o(i.UI_SerialCommunicationTimeOutStop) for UI_SerialCommunicationTimeOutStop
    stm32g4xx_mc_it.o(i.HardFault_Handler) refers to usart_frame_communication_protocol.o(i.UFCP_TX_IRQ_Handler) for UFCP_TX_IRQ_Handler
    stm32g4xx_mc_it.o(i.HardFault_Handler) refers to usart_frame_communication_protocol.o(i.UFCP_RX_IRQ_Handler) for UFCP_RX_IRQ_Handler
    stm32g4xx_mc_it.o(i.HardFault_Handler) refers to ui_task.o(i.UI_SerialCommunicationTimeOutStart) for UI_SerialCommunicationTimeOutStart
    stm32g4xx_mc_it.o(i.HardFault_Handler) refers to mc_config.o(.data) for pUSART
    stm32g4xx_mc_it.o(i.SysTick_Handler) refers to stm32g4xx_hal.o(i.HAL_IncTick) for HAL_IncTick
    stm32g4xx_mc_it.o(i.SysTick_Handler) refers to stm32g4xx_hal_cortex.o(i.HAL_SYSTICK_IRQHandler) for HAL_SYSTICK_IRQHandler
    stm32g4xx_mc_it.o(i.SysTick_Handler) refers to mc_tasks.o(i.MC_RunMotorControlTasks) for MC_RunMotorControlTasks
    stm32g4xx_mc_it.o(i.SysTick_Handler) refers to stm32g4xx_mc_it.o(.data) for .data
    stm32g4xx_mc_it.o(i.TIM1_BRK_TIM15_IRQHandler) refers to r1_g4xx_pwm_curr_fdbk.o(i.R1_BRK_IRQHandler) for R1_BRK_IRQHandler
    stm32g4xx_mc_it.o(i.TIM1_BRK_TIM15_IRQHandler) refers to r1_g4xx_pwm_curr_fdbk.o(i.R1_BRK2_IRQHandler) for R1_BRK2_IRQHandler
    stm32g4xx_mc_it.o(i.TIM1_BRK_TIM15_IRQHandler) refers to mc_tasks.o(i.MC_Scheduler) for MC_Scheduler
    stm32g4xx_mc_it.o(i.TIM1_BRK_TIM15_IRQHandler) refers to mc_config.o(.data) for PWM_Handle_M1
    stm32g4xx_mc_it.o(i.TIM1_UP_TIM16_IRQHandler) refers to r1_g4xx_pwm_curr_fdbk.o(i.R1_TIMx_UP_IRQHandler) for R1_TIMx_UP_IRQHandler
    stm32g4xx_mc_it.o(i.TIM1_UP_TIM16_IRQHandler) refers to mc_config.o(.data) for PWM_Handle_M1
    stm32g4xx_mc_it.o(i.USART2_IRQHandler) refers to usart_frame_communication_protocol.o(i.UFCP_RX_IRQ_Handler) for UFCP_RX_IRQ_Handler
    stm32g4xx_mc_it.o(i.USART2_IRQHandler) refers to ui_task.o(i.UI_SerialCommunicationTimeOutStop) for UI_SerialCommunicationTimeOutStop
    stm32g4xx_mc_it.o(i.USART2_IRQHandler) refers to ui_task.o(i.UI_SerialCommunicationTimeOutStart) for UI_SerialCommunicationTimeOutStart
    stm32g4xx_mc_it.o(i.USART2_IRQHandler) refers to usart_frame_communication_protocol.o(i.UFCP_TX_IRQ_Handler) for UFCP_TX_IRQ_Handler
    stm32g4xx_mc_it.o(i.USART2_IRQHandler) refers to usart_frame_communication_protocol.o(i.UFCP_OVR_IRQ_Handler) for UFCP_OVR_IRQ_Handler
    stm32g4xx_mc_it.o(i.USART2_IRQHandler) refers to mc_config.o(.data) for pUSART
    ui_task.o(i.GetMCP) refers to ui_task.o(.data) for .data
    ui_task.o(i.UI_HandleStartStopButton_cb) refers to mc_api.o(i.MC_GetSTMStateMotor1) for MC_GetSTMStateMotor1
    ui_task.o(i.UI_HandleStartStopButton_cb) refers to mc_api.o(i.MC_StopMotor1) for MC_StopMotor1
    ui_task.o(i.UI_HandleStartStopButton_cb) refers to mc_api.o(i.MC_StartMotor1) for MC_StartMotor1
    ui_task.o(i.UI_IdleTimeHasElapsed) refers to ui_task.o(.data) for .data
    ui_task.o(i.UI_Scheduler) refers to ui_task.o(.data) for .data
    ui_task.o(i.UI_SerialCommunicationATRTimeHasElapsed) refers to ui_task.o(.data) for .data
    ui_task.o(i.UI_SerialCommunicationTimeOutHasElapsed) refers to ui_task.o(.data) for .data
    ui_task.o(i.UI_SerialCommunicationTimeOutStart) refers to ui_task.o(.data) for .data
    ui_task.o(i.UI_SerialCommunicationTimeOutStop) refers to ui_task.o(.data) for .data
    ui_task.o(i.UI_SetIdleTime) refers to ui_task.o(.data) for .data
    ui_task.o(i.UI_TaskInit) refers to usart_frame_communication_protocol.o(i.UFCP_Init) for UFCP_Init
    ui_task.o(i.UI_TaskInit) refers to motor_control_protocol.o(i.MCP_Init) for MCP_Init
    ui_task.o(i.UI_TaskInit) refers to user_interface.o(i.UI_Init) for UI_Init
    ui_task.o(i.UI_TaskInit) refers to ui_task.o(.bss) for .bss
    ui_task.o(i.UI_TaskInit) refers to ui_task.o(.data) for .data
    ui_task.o(i.UI_TaskInit) refers to mc_config.o(.bss) for UI_Params
    ui_task.o(i.UI_TaskInit) refers to mc_config.o(.data) for pUSART
    ui_task.o(i.UI_TaskInit) refers to usart_frame_communication_protocol.o(i.UFCP_AbortReceive) for UFCP_AbortReceive
    ui_task.o(i.UI_TaskInit) refers to usart_frame_communication_protocol.o(i.UFCP_Receive) for UFCP_Receive
    ui_task.o(i.UI_TaskInit) refers to usart_frame_communication_protocol.o(i.UFCP_Send) for UFCP_Send
    user_interface.o(i.UI_ExecCmd) refers to mc_interface.o(i.MCI_GetSTMState) for MCI_GetSTMState
    user_interface.o(i.UI_ExecCmd) refers to mc_interface.o(i.MCI_StopRamp) for MCI_StopRamp
    user_interface.o(i.UI_ExecCmd) refers to mc_interface.o(i.MCI_StopMotor) for MCI_StopMotor
    user_interface.o(i.UI_ExecCmd) refers to mc_interface.o(i.MCI_StartMotor) for MCI_StartMotor
    user_interface.o(i.UI_ExecCmd) refers to mc_interface.o(i.MCI_FaultAcknowledged) for MCI_FaultAcknowledged
    user_interface.o(i.UI_ExecCmd) refers to mc_interface.o(i.MCI_EncoderAlign) for MCI_EncoderAlign
    user_interface.o(i.UI_ExecCmd) refers to mc_interface.o(i.MCI_Clear_Iqdref) for MCI_Clear_Iqdref
    user_interface.o(i.UI_ExecSpeedRamp) refers to mc_interface.o(i.MCI_ExecSpeedRamp) for MCI_ExecSpeedRamp
    user_interface.o(i.UI_ExecTorqueRamp) refers to mc_interface.o(i.MCI_ExecTorqueRamp) for MCI_ExecTorqueRamp
    user_interface.o(i.UI_GetReg) refers to user_interface.o(i.UI_GetSelectedMC) for UI_GetSelectedMC
    user_interface.o(i.UI_GetReg) refers to state_machine.o(i.STM_GetFaultState) for STM_GetFaultState
    user_interface.o(i.UI_GetReg) refers to state_machine.o(i.STM_GetState) for STM_GetState
    user_interface.o(i.UI_GetReg) refers to mc_interface.o(i.MCI_GetMecSpeedRefUnit) for MCI_GetMecSpeedRefUnit
    user_interface.o(i.UI_GetReg) refers to pid_regulator.o(i.PID_GetKP) for PID_GetKP
    user_interface.o(i.UI_GetReg) refers to pid_regulator.o(i.PID_GetKI) for PID_GetKI
    user_interface.o(i.UI_GetReg) refers to pid_regulator.o(i.PID_GetKD) for PID_GetKD
    user_interface.o(i.UI_GetReg) refers to bus_voltage_sensor.o(i.VBS_GetAvBusVoltage_V) for VBS_GetAvBusVoltage_V
    user_interface.o(i.UI_GetReg) refers to ntc_temperature_sensor.o(i.NTC_GetAvTemp_C) for NTC_GetAvTemp_C
    user_interface.o(i.UI_GetReg) refers to mc_interface.o(i.MCI_GetAvrgMecSpeedUnit) for MCI_GetAvrgMecSpeedUnit
    user_interface.o(i.UI_GetReg) refers to mc_interface.o(i.MCI_GetControlMode) for MCI_GetControlMode
    user_interface.o(i.UI_GetReg) refers to mc_interface.o(i.MCI_GetLastRampFinalSpeed) for MCI_GetLastRampFinalSpeed
    user_interface.o(i.UI_GetReg) refers to pid_regulator.o(i.PID_GetKPDivisor) for PID_GetKPDivisor
    user_interface.o(i.UI_GetReg) refers to pid_regulator.o(i.PID_GetKIDivisor) for PID_GetKIDivisor
    user_interface.o(i.UI_GetReg) refers to mc_interface.o(i.MCI_GetIqdref) for MCI_GetIqdref
    user_interface.o(i.UI_GetReg) refers to sto_pll_speed_pos_fdbk.o(.text) for STO_PLL_GetObserverGains
    user_interface.o(i.UI_GetReg) refers to speed_pos_fdbk.o(i.SPD_GetElAngle) for SPD_GetElAngle
    user_interface.o(i.UI_GetReg) refers to speed_pos_fdbk.o(i.SPD_GetS16Speed) for SPD_GetS16Speed
    user_interface.o(i.UI_GetReg) refers to motor_power_measurement.o(i.MPM_GetAvrgElMotorPowerW) for MPM_GetAvrgElMotorPowerW
    user_interface.o(i.UI_GetReg) refers to speed_torq_ctrl.o(i.STC_GetMaxAppPositiveMecSpeedUnit) for STC_GetMaxAppPositiveMecSpeedUnit
    user_interface.o(i.UI_GetReg) refers to speed_torq_ctrl.o(i.STC_GetMinAppNegativeMecSpeedUnit) for STC_GetMinAppNegativeMecSpeedUnit
    user_interface.o(i.UI_GetReg) refers to mc_interface.o(i.MCI_GetIqd) for MCI_GetIqd
    user_interface.o(i.UI_GetReg) refers to revup_ctrl.o(.text) for RUC_GetNumberOfPhases
    user_interface.o(i.UI_GetReg) refers to mc_interface.o(i.MCI_GetIab) for MCI_GetIab
    user_interface.o(i.UI_GetReg) refers to mc_interface.o(i.MCI_GetIalphabeta) for MCI_GetIalphabeta
    user_interface.o(i.UI_GetReg) refers to mc_interface.o(i.MCI_GetVqd) for MCI_GetVqd
    user_interface.o(i.UI_GetReg) refers to mc_interface.o(i.MCI_GetValphabeta) for MCI_GetValphabeta
    user_interface.o(i.UI_GetRevupData) refers to revup_ctrl.o(.text) for RUC_GetPhaseDurationms
    user_interface.o(i.UI_SetCurrentReferences) refers to mc_interface.o(i.MCI_SetCurrentReferences) for MCI_SetCurrentReferences
    user_interface.o(i.UI_SetReg) refers to user_interface.o(i.UI_SelectMC) for UI_SelectMC
    user_interface.o(i.UI_SetReg) refers to mc_interface.o(i.MCI_ExecSpeedRamp) for MCI_ExecSpeedRamp
    user_interface.o(i.UI_SetReg) refers to pid_regulator.o(i.PID_SetKP) for PID_SetKP
    user_interface.o(i.UI_SetReg) refers to pid_regulator.o(i.PID_SetKI) for PID_SetKI
    user_interface.o(i.UI_SetReg) refers to pid_regulator.o(i.PID_SetKD) for PID_SetKD
    user_interface.o(i.UI_SetReg) refers to mc_interface.o(i.MCI_GetTeref) for MCI_GetTeref
    user_interface.o(i.UI_SetReg) refers to mc_interface.o(i.MCI_ExecTorqueRamp) for MCI_ExecTorqueRamp
    user_interface.o(i.UI_SetReg) refers to mc_interface.o(i.MCI_GetMecSpeedRefUnit) for MCI_GetMecSpeedRefUnit
    user_interface.o(i.UI_SetReg) refers to mc_interface.o(i.MCI_GetIqdref) for MCI_GetIqdref
    user_interface.o(i.UI_SetReg) refers to mc_interface.o(i.MCI_SetCurrentReferences) for MCI_SetCurrentReferences
    user_interface.o(i.UI_SetReg) refers to sto_pll_speed_pos_fdbk.o(.text) for STO_PLL_GetObserverGains
    user_interface.o(i.UI_SetReg) refers to mc_interface.o(i.MCI_SetIdref) for MCI_SetIdref
    user_interface.o(i.UI_SetRevupData) refers to revup_ctrl.o(.text) for RUC_SetPhaseDurationms
    stm32g4xx_hal_msp.o(i.HAL_ADC_MspDeInit) refers to stm32g4xx_hal_gpio.o(i.HAL_GPIO_DeInit) for HAL_GPIO_DeInit
    stm32g4xx_hal_msp.o(i.HAL_ADC_MspDeInit) refers to stm32g4xx_hal_cortex.o(i.HAL_NVIC_DisableIRQ) for HAL_NVIC_DisableIRQ
    stm32g4xx_hal_msp.o(i.HAL_ADC_MspInit) refers to stm32g4xx_hal_gpio.o(i.HAL_GPIO_Init) for HAL_GPIO_Init
    stm32g4xx_hal_msp.o(i.HAL_MspInit) refers to stm32g4xx_hal_cortex.o(i.HAL_NVIC_SetPriorityGrouping) for HAL_NVIC_SetPriorityGrouping
    stm32g4xx_hal_msp.o(i.HAL_TIM_Base_MspDeInit) refers to stm32g4xx_hal_gpio.o(i.HAL_GPIO_DeInit) for HAL_GPIO_DeInit
    stm32g4xx_hal_msp.o(i.HAL_TIM_Base_MspDeInit) refers to stm32g4xx_hal_dma.o(i.HAL_DMA_DeInit) for HAL_DMA_DeInit
    stm32g4xx_hal_msp.o(i.HAL_TIM_Base_MspDeInit) refers to stm32g4xx_hal_cortex.o(i.HAL_NVIC_DisableIRQ) for HAL_NVIC_DisableIRQ
    stm32g4xx_hal_msp.o(i.HAL_TIM_Base_MspInit) refers to stm32g4xx_hal_gpio.o(i.HAL_GPIO_Init) for HAL_GPIO_Init
    stm32g4xx_hal_msp.o(i.HAL_TIM_Base_MspInit) refers to stm32g4xx_hal_dma.o(i.HAL_DMA_Init) for HAL_DMA_Init
    stm32g4xx_hal_msp.o(i.HAL_TIM_Base_MspInit) refers to main.o(i.Error_Handler) for Error_Handler
    stm32g4xx_hal_msp.o(i.HAL_TIM_Base_MspInit) refers to main.o(.bss) for hdma_tim1_ch4
    stm32g4xx_hal_msp.o(i.HAL_TIM_MspPostInit) refers to stm32g4xx_hal_gpio.o(i.HAL_GPIO_Init) for HAL_GPIO_Init
    stm32g4xx_hal_msp.o(i.HAL_UART_MspDeInit) refers to stm32g4xx_hal_gpio.o(i.HAL_GPIO_DeInit) for HAL_GPIO_DeInit
    stm32g4xx_hal_msp.o(i.HAL_UART_MspDeInit) refers to stm32g4xx_hal_cortex.o(i.HAL_NVIC_DisableIRQ) for HAL_NVIC_DisableIRQ
    stm32g4xx_hal_msp.o(i.HAL_UART_MspInit) refers to stm32g4xx_hal_gpio.o(i.HAL_GPIO_Init) for HAL_GPIO_Init
    stm32g4xx_hal_gpio.o(i.HAL_GPIO_EXTI_IRQHandler) refers to stm32g4xx_hal_gpio.o(i.HAL_GPIO_EXTI_Callback) for HAL_GPIO_EXTI_Callback
    stm32g4xx_hal_adc.o(i.ADC_ConversionStop) refers to stm32g4xx_hal.o(i.HAL_GetTick) for HAL_GetTick
    stm32g4xx_hal_adc.o(i.ADC_DMAConvCplt) refers to stm32g4xx_hal_adc.o(i.HAL_ADC_ErrorCallback) for HAL_ADC_ErrorCallback
    stm32g4xx_hal_adc.o(i.ADC_DMAConvCplt) refers to stm32g4xx_hal_adc.o(i.HAL_ADC_ConvCpltCallback) for HAL_ADC_ConvCpltCallback
    stm32g4xx_hal_adc.o(i.ADC_DMAError) refers to stm32g4xx_hal_adc.o(i.HAL_ADC_ErrorCallback) for HAL_ADC_ErrorCallback
    stm32g4xx_hal_adc.o(i.ADC_DMAHalfConvCplt) refers to stm32g4xx_hal_adc.o(i.HAL_ADC_ConvHalfCpltCallback) for HAL_ADC_ConvHalfCpltCallback
    stm32g4xx_hal_adc.o(i.ADC_Disable) refers to stm32g4xx_hal.o(i.HAL_GetTick) for HAL_GetTick
    stm32g4xx_hal_adc.o(i.ADC_Enable) refers to stm32g4xx_hal.o(i.HAL_GetTick) for HAL_GetTick
    stm32g4xx_hal_adc.o(i.HAL_ADC_ConfigChannel) refers to system_stm32g4xx.o(.data) for SystemCoreClock
    stm32g4xx_hal_adc.o(i.HAL_ADC_DeInit) refers to stm32g4xx_hal_adc.o(i.ADC_ConversionStop) for ADC_ConversionStop
    stm32g4xx_hal_adc.o(i.HAL_ADC_DeInit) refers to stm32g4xx_hal_adc.o(i.ADC_Disable) for ADC_Disable
    stm32g4xx_hal_adc.o(i.HAL_ADC_DeInit) refers to stm32g4xx_hal_msp.o(i.HAL_ADC_MspDeInit) for HAL_ADC_MspDeInit
    stm32g4xx_hal_adc.o(i.HAL_ADC_IRQHandler) refers to stm32g4xx_hal_adc_ex.o(i.HAL_ADCEx_EndOfSamplingCallback) for HAL_ADCEx_EndOfSamplingCallback
    stm32g4xx_hal_adc.o(i.HAL_ADC_IRQHandler) refers to stm32g4xx_hal_adc.o(i.HAL_ADC_ConvCpltCallback) for HAL_ADC_ConvCpltCallback
    stm32g4xx_hal_adc.o(i.HAL_ADC_IRQHandler) refers to stm32g4xx_hal_adc_ex.o(i.HAL_ADCEx_InjectedConvCpltCallback) for HAL_ADCEx_InjectedConvCpltCallback
    stm32g4xx_hal_adc.o(i.HAL_ADC_IRQHandler) refers to stm32g4xx_hal_adc.o(i.HAL_ADC_LevelOutOfWindowCallback) for HAL_ADC_LevelOutOfWindowCallback
    stm32g4xx_hal_adc.o(i.HAL_ADC_IRQHandler) refers to stm32g4xx_hal_adc_ex.o(i.HAL_ADCEx_LevelOutOfWindow2Callback) for HAL_ADCEx_LevelOutOfWindow2Callback
    stm32g4xx_hal_adc.o(i.HAL_ADC_IRQHandler) refers to stm32g4xx_hal_adc_ex.o(i.HAL_ADCEx_LevelOutOfWindow3Callback) for HAL_ADCEx_LevelOutOfWindow3Callback
    stm32g4xx_hal_adc.o(i.HAL_ADC_IRQHandler) refers to stm32g4xx_hal_adc.o(i.HAL_ADC_ErrorCallback) for HAL_ADC_ErrorCallback
    stm32g4xx_hal_adc.o(i.HAL_ADC_IRQHandler) refers to stm32g4xx_hal_adc_ex.o(i.HAL_ADCEx_InjectedQueueOverflowCallback) for HAL_ADCEx_InjectedQueueOverflowCallback
    stm32g4xx_hal_adc.o(i.HAL_ADC_Init) refers to stm32g4xx_hal_msp.o(i.HAL_ADC_MspInit) for HAL_ADC_MspInit
    stm32g4xx_hal_adc.o(i.HAL_ADC_Init) refers to system_stm32g4xx.o(.data) for SystemCoreClock
    stm32g4xx_hal_adc.o(i.HAL_ADC_PollForConversion) refers to stm32g4xx_hal.o(i.HAL_GetTick) for HAL_GetTick
    stm32g4xx_hal_adc.o(i.HAL_ADC_PollForEvent) refers to stm32g4xx_hal.o(i.HAL_GetTick) for HAL_GetTick
    stm32g4xx_hal_adc.o(i.HAL_ADC_Start) refers to stm32g4xx_hal_adc.o(i.ADC_Enable) for ADC_Enable
    stm32g4xx_hal_adc.o(i.HAL_ADC_Start_DMA) refers to stm32g4xx_hal_adc.o(i.ADC_Enable) for ADC_Enable
    stm32g4xx_hal_adc.o(i.HAL_ADC_Start_DMA) refers to stm32g4xx_hal_dma.o(i.HAL_DMA_Start_IT) for HAL_DMA_Start_IT
    stm32g4xx_hal_adc.o(i.HAL_ADC_Start_DMA) refers to stm32g4xx_hal_adc.o(i.ADC_DMAConvCplt) for ADC_DMAConvCplt
    stm32g4xx_hal_adc.o(i.HAL_ADC_Start_DMA) refers to stm32g4xx_hal_adc.o(i.ADC_DMAHalfConvCplt) for ADC_DMAHalfConvCplt
    stm32g4xx_hal_adc.o(i.HAL_ADC_Start_DMA) refers to stm32g4xx_hal_adc.o(i.ADC_DMAError) for ADC_DMAError
    stm32g4xx_hal_adc.o(i.HAL_ADC_Start_IT) refers to stm32g4xx_hal_adc.o(i.ADC_Enable) for ADC_Enable
    stm32g4xx_hal_adc.o(i.HAL_ADC_Stop) refers to stm32g4xx_hal_adc.o(i.ADC_ConversionStop) for ADC_ConversionStop
    stm32g4xx_hal_adc.o(i.HAL_ADC_Stop) refers to stm32g4xx_hal_adc.o(i.ADC_Disable) for ADC_Disable
    stm32g4xx_hal_adc.o(i.HAL_ADC_Stop_DMA) refers to stm32g4xx_hal_adc.o(i.ADC_ConversionStop) for ADC_ConversionStop
    stm32g4xx_hal_adc.o(i.HAL_ADC_Stop_DMA) refers to stm32g4xx_hal_dma.o(i.HAL_DMA_Abort) for HAL_DMA_Abort
    stm32g4xx_hal_adc.o(i.HAL_ADC_Stop_DMA) refers to stm32g4xx_hal_adc.o(i.ADC_Disable) for ADC_Disable
    stm32g4xx_hal_adc.o(i.HAL_ADC_Stop_IT) refers to stm32g4xx_hal_adc.o(i.ADC_ConversionStop) for ADC_ConversionStop
    stm32g4xx_hal_adc.o(i.HAL_ADC_Stop_IT) refers to stm32g4xx_hal_adc.o(i.ADC_Disable) for ADC_Disable
    stm32g4xx_hal_adc_ex.o(i.HAL_ADCEx_Calibration_Start) refers to stm32g4xx_hal_adc.o(i.ADC_Disable) for ADC_Disable
    stm32g4xx_hal_adc_ex.o(i.HAL_ADCEx_InjectedConfigChannel) refers to system_stm32g4xx.o(.data) for SystemCoreClock
    stm32g4xx_hal_adc_ex.o(i.HAL_ADCEx_InjectedPollForConversion) refers to stm32g4xx_hal.o(i.HAL_GetTick) for HAL_GetTick
    stm32g4xx_hal_adc_ex.o(i.HAL_ADCEx_InjectedStart) refers to stm32g4xx_hal_adc.o(i.ADC_Enable) for ADC_Enable
    stm32g4xx_hal_adc_ex.o(i.HAL_ADCEx_InjectedStart_IT) refers to stm32g4xx_hal_adc.o(i.ADC_Enable) for ADC_Enable
    stm32g4xx_hal_adc_ex.o(i.HAL_ADCEx_InjectedStop) refers to stm32g4xx_hal_adc.o(i.ADC_ConversionStop) for ADC_ConversionStop
    stm32g4xx_hal_adc_ex.o(i.HAL_ADCEx_InjectedStop) refers to stm32g4xx_hal_adc.o(i.ADC_Disable) for ADC_Disable
    stm32g4xx_hal_adc_ex.o(i.HAL_ADCEx_InjectedStop_IT) refers to stm32g4xx_hal_adc.o(i.ADC_ConversionStop) for ADC_ConversionStop
    stm32g4xx_hal_adc_ex.o(i.HAL_ADCEx_InjectedStop_IT) refers to stm32g4xx_hal_adc.o(i.ADC_Disable) for ADC_Disable
    stm32g4xx_hal_adc_ex.o(i.HAL_ADCEx_MultiModeStart_DMA) refers to stm32g4xx_hal_adc.o(i.ADC_Enable) for ADC_Enable
    stm32g4xx_hal_adc_ex.o(i.HAL_ADCEx_MultiModeStart_DMA) refers to stm32g4xx_hal_dma.o(i.HAL_DMA_Start_IT) for HAL_DMA_Start_IT
    stm32g4xx_hal_adc_ex.o(i.HAL_ADCEx_MultiModeStart_DMA) refers to stm32g4xx_hal_adc.o(i.ADC_DMAConvCplt) for ADC_DMAConvCplt
    stm32g4xx_hal_adc_ex.o(i.HAL_ADCEx_MultiModeStart_DMA) refers to stm32g4xx_hal_adc.o(i.ADC_DMAHalfConvCplt) for ADC_DMAHalfConvCplt
    stm32g4xx_hal_adc_ex.o(i.HAL_ADCEx_MultiModeStart_DMA) refers to stm32g4xx_hal_adc.o(i.ADC_DMAError) for ADC_DMAError
    stm32g4xx_hal_adc_ex.o(i.HAL_ADCEx_MultiModeStop_DMA) refers to stm32g4xx_hal_adc.o(i.ADC_ConversionStop) for ADC_ConversionStop
    stm32g4xx_hal_adc_ex.o(i.HAL_ADCEx_MultiModeStop_DMA) refers to stm32g4xx_hal.o(i.HAL_GetTick) for HAL_GetTick
    stm32g4xx_hal_adc_ex.o(i.HAL_ADCEx_MultiModeStop_DMA) refers to stm32g4xx_hal_dma.o(i.HAL_DMA_Abort) for HAL_DMA_Abort
    stm32g4xx_hal_adc_ex.o(i.HAL_ADCEx_MultiModeStop_DMA) refers to stm32g4xx_hal_adc.o(i.ADC_Disable) for ADC_Disable
    stm32g4xx_hal_adc_ex.o(i.HAL_ADCEx_RegularMultiModeStop_DMA) refers to stm32g4xx_hal_adc.o(i.ADC_ConversionStop) for ADC_ConversionStop
    stm32g4xx_hal_adc_ex.o(i.HAL_ADCEx_RegularMultiModeStop_DMA) refers to stm32g4xx_hal.o(i.HAL_GetTick) for HAL_GetTick
    stm32g4xx_hal_adc_ex.o(i.HAL_ADCEx_RegularMultiModeStop_DMA) refers to stm32g4xx_hal_dma.o(i.HAL_DMA_Abort) for HAL_DMA_Abort
    stm32g4xx_hal_adc_ex.o(i.HAL_ADCEx_RegularMultiModeStop_DMA) refers to stm32g4xx_hal_adc.o(i.ADC_Disable) for ADC_Disable
    stm32g4xx_hal_adc_ex.o(i.HAL_ADCEx_RegularStop) refers to stm32g4xx_hal_adc.o(i.ADC_ConversionStop) for ADC_ConversionStop
    stm32g4xx_hal_adc_ex.o(i.HAL_ADCEx_RegularStop) refers to stm32g4xx_hal_adc.o(i.ADC_Disable) for ADC_Disable
    stm32g4xx_hal_adc_ex.o(i.HAL_ADCEx_RegularStop_DMA) refers to stm32g4xx_hal_adc.o(i.ADC_ConversionStop) for ADC_ConversionStop
    stm32g4xx_hal_adc_ex.o(i.HAL_ADCEx_RegularStop_DMA) refers to stm32g4xx_hal_dma.o(i.HAL_DMA_Abort) for HAL_DMA_Abort
    stm32g4xx_hal_adc_ex.o(i.HAL_ADCEx_RegularStop_DMA) refers to stm32g4xx_hal_adc.o(i.ADC_Disable) for ADC_Disable
    stm32g4xx_hal_adc_ex.o(i.HAL_ADCEx_RegularStop_IT) refers to stm32g4xx_hal_adc.o(i.ADC_ConversionStop) for ADC_ConversionStop
    stm32g4xx_hal_adc_ex.o(i.HAL_ADCEx_RegularStop_IT) refers to stm32g4xx_hal_adc.o(i.ADC_Disable) for ADC_Disable
    stm32g4xx_hal.o(i.HAL_DeInit) refers to stm32g4xx_hal.o(i.HAL_MspDeInit) for HAL_MspDeInit
    stm32g4xx_hal.o(i.HAL_Delay) refers to stm32g4xx_hal.o(i.HAL_GetTick) for HAL_GetTick
    stm32g4xx_hal.o(i.HAL_Delay) refers to stm32g4xx_hal.o(.data) for .data
    stm32g4xx_hal.o(i.HAL_GetTick) refers to stm32g4xx_hal.o(.data) for .data
    stm32g4xx_hal.o(i.HAL_GetTickFreq) refers to stm32g4xx_hal.o(.data) for .data
    stm32g4xx_hal.o(i.HAL_GetTickPrio) refers to stm32g4xx_hal.o(.data) for .data
    stm32g4xx_hal.o(i.HAL_IncTick) refers to stm32g4xx_hal.o(.data) for .data
    stm32g4xx_hal.o(i.HAL_Init) refers to stm32g4xx_hal_cortex.o(i.HAL_NVIC_SetPriorityGrouping) for HAL_NVIC_SetPriorityGrouping
    stm32g4xx_hal.o(i.HAL_Init) refers to stm32g4xx_hal.o(i.HAL_InitTick) for HAL_InitTick
    stm32g4xx_hal.o(i.HAL_Init) refers to stm32g4xx_hal_msp.o(i.HAL_MspInit) for HAL_MspInit
    stm32g4xx_hal.o(i.HAL_InitTick) refers to stm32g4xx_hal_cortex.o(i.HAL_SYSTICK_Config) for HAL_SYSTICK_Config
    stm32g4xx_hal.o(i.HAL_InitTick) refers to stm32g4xx_hal_cortex.o(i.HAL_NVIC_SetPriority) for HAL_NVIC_SetPriority
    stm32g4xx_hal.o(i.HAL_InitTick) refers to stm32g4xx_hal.o(.data) for .data
    stm32g4xx_hal.o(i.HAL_InitTick) refers to system_stm32g4xx.o(.data) for SystemCoreClock
    stm32g4xx_hal.o(i.HAL_SYSCFG_EnableVREFBUF) refers to stm32g4xx_hal.o(i.HAL_GetTick) for HAL_GetTick
    stm32g4xx_hal.o(i.HAL_SetTickFreq) refers to stm32g4xx_hal.o(i.HAL_InitTick) for HAL_InitTick
    stm32g4xx_hal.o(i.HAL_SetTickFreq) refers to stm32g4xx_hal.o(.data) for .data
    stm32g4xx_hal_rcc.o(i.HAL_RCC_ClockConfig) refers to stm32g4xx_hal_rcc.o(i.HAL_RCC_GetSysClockFreq) for HAL_RCC_GetSysClockFreq
    stm32g4xx_hal_rcc.o(i.HAL_RCC_ClockConfig) refers to stm32g4xx_hal.o(i.HAL_GetTick) for HAL_GetTick
    stm32g4xx_hal_rcc.o(i.HAL_RCC_ClockConfig) refers to stm32g4xx_hal.o(i.HAL_InitTick) for HAL_InitTick
    stm32g4xx_hal_rcc.o(i.HAL_RCC_ClockConfig) refers to system_stm32g4xx.o(.constdata) for AHBPrescTable
    stm32g4xx_hal_rcc.o(i.HAL_RCC_ClockConfig) refers to system_stm32g4xx.o(.data) for SystemCoreClock
    stm32g4xx_hal_rcc.o(i.HAL_RCC_ClockConfig) refers to stm32g4xx_hal.o(.data) for uwTickPrio
    stm32g4xx_hal_rcc.o(i.HAL_RCC_DeInit) refers to stm32g4xx_hal.o(i.HAL_GetTick) for HAL_GetTick
    stm32g4xx_hal_rcc.o(i.HAL_RCC_DeInit) refers to stm32g4xx_hal.o(i.HAL_InitTick) for HAL_InitTick
    stm32g4xx_hal_rcc.o(i.HAL_RCC_DeInit) refers to system_stm32g4xx.o(.data) for SystemCoreClock
    stm32g4xx_hal_rcc.o(i.HAL_RCC_DeInit) refers to stm32g4xx_hal.o(.data) for uwTickPrio
    stm32g4xx_hal_rcc.o(i.HAL_RCC_GetHCLKFreq) refers to system_stm32g4xx.o(.data) for SystemCoreClock
    stm32g4xx_hal_rcc.o(i.HAL_RCC_GetPCLK1Freq) refers to system_stm32g4xx.o(.data) for SystemCoreClock
    stm32g4xx_hal_rcc.o(i.HAL_RCC_GetPCLK1Freq) refers to system_stm32g4xx.o(.constdata) for APBPrescTable
    stm32g4xx_hal_rcc.o(i.HAL_RCC_GetPCLK2Freq) refers to system_stm32g4xx.o(.data) for SystemCoreClock
    stm32g4xx_hal_rcc.o(i.HAL_RCC_GetPCLK2Freq) refers to system_stm32g4xx.o(.constdata) for APBPrescTable
    stm32g4xx_hal_rcc.o(i.HAL_RCC_MCOConfig) refers to stm32g4xx_hal_gpio.o(i.HAL_GPIO_Init) for HAL_GPIO_Init
    stm32g4xx_hal_rcc.o(i.HAL_RCC_NMI_IRQHandler) refers to stm32g4xx_hal_rcc.o(i.HAL_RCC_CSSCallback) for HAL_RCC_CSSCallback
    stm32g4xx_hal_rcc.o(i.HAL_RCC_OscConfig) refers to stm32g4xx_hal.o(i.HAL_GetTick) for HAL_GetTick
    stm32g4xx_hal_rcc.o(i.HAL_RCC_OscConfig) refers to stm32g4xx_hal.o(i.HAL_InitTick) for HAL_InitTick
    stm32g4xx_hal_rcc.o(i.HAL_RCC_OscConfig) refers to stm32g4xx_hal.o(.data) for uwTickPrio
    stm32g4xx_hal_rcc_ex.o(i.HAL_RCCEx_CRSWaitSynchronization) refers to stm32g4xx_hal.o(i.HAL_GetTick) for HAL_GetTick
    stm32g4xx_hal_rcc_ex.o(i.HAL_RCCEx_CRS_IRQHandler) refers to stm32g4xx_hal_rcc_ex.o(i.HAL_RCCEx_CRS_SyncOkCallback) for HAL_RCCEx_CRS_SyncOkCallback
    stm32g4xx_hal_rcc_ex.o(i.HAL_RCCEx_CRS_IRQHandler) refers to stm32g4xx_hal_rcc_ex.o(i.HAL_RCCEx_CRS_SyncWarnCallback) for HAL_RCCEx_CRS_SyncWarnCallback
    stm32g4xx_hal_rcc_ex.o(i.HAL_RCCEx_CRS_IRQHandler) refers to stm32g4xx_hal_rcc_ex.o(i.HAL_RCCEx_CRS_ExpectedSyncCallback) for HAL_RCCEx_CRS_ExpectedSyncCallback
    stm32g4xx_hal_rcc_ex.o(i.HAL_RCCEx_CRS_IRQHandler) refers to stm32g4xx_hal_rcc_ex.o(i.HAL_RCCEx_CRS_ErrorCallback) for HAL_RCCEx_CRS_ErrorCallback
    stm32g4xx_hal_rcc_ex.o(i.HAL_RCCEx_DisableLSCO) refers to stm32g4xx_hal_pwr.o(i.HAL_PWR_EnableBkUpAccess) for HAL_PWR_EnableBkUpAccess
    stm32g4xx_hal_rcc_ex.o(i.HAL_RCCEx_DisableLSCO) refers to stm32g4xx_hal_pwr.o(i.HAL_PWR_DisableBkUpAccess) for HAL_PWR_DisableBkUpAccess
    stm32g4xx_hal_rcc_ex.o(i.HAL_RCCEx_EnableLSCO) refers to stm32g4xx_hal_gpio.o(i.HAL_GPIO_Init) for HAL_GPIO_Init
    stm32g4xx_hal_rcc_ex.o(i.HAL_RCCEx_EnableLSCO) refers to stm32g4xx_hal_pwr.o(i.HAL_PWR_EnableBkUpAccess) for HAL_PWR_EnableBkUpAccess
    stm32g4xx_hal_rcc_ex.o(i.HAL_RCCEx_EnableLSCO) refers to stm32g4xx_hal_pwr.o(i.HAL_PWR_DisableBkUpAccess) for HAL_PWR_DisableBkUpAccess
    stm32g4xx_hal_rcc_ex.o(i.HAL_RCCEx_GetPeriphCLKFreq) refers to stm32g4xx_hal_rcc.o(i.HAL_RCC_GetSysClockFreq) for HAL_RCC_GetSysClockFreq
    stm32g4xx_hal_rcc_ex.o(i.HAL_RCCEx_GetPeriphCLKFreq) refers to stm32g4xx_hal_rcc.o(i.HAL_RCC_GetPCLK2Freq) for HAL_RCC_GetPCLK2Freq
    stm32g4xx_hal_rcc_ex.o(i.HAL_RCCEx_GetPeriphCLKFreq) refers to stm32g4xx_hal_rcc.o(i.HAL_RCC_GetPCLK1Freq) for HAL_RCC_GetPCLK1Freq
    stm32g4xx_hal_rcc_ex.o(i.HAL_RCCEx_LSECSS_IRQHandler) refers to stm32g4xx_hal_rcc_ex.o(i.HAL_RCCEx_LSECSS_Callback) for HAL_RCCEx_LSECSS_Callback
    stm32g4xx_hal_rcc_ex.o(i.HAL_RCCEx_PeriphCLKConfig) refers to stm32g4xx_hal.o(i.HAL_GetTick) for HAL_GetTick
    stm32g4xx_hal_flash.o(i.FLASH_WaitForLastOperation) refers to stm32g4xx_hal.o(i.HAL_GetTick) for HAL_GetTick
    stm32g4xx_hal_flash.o(i.FLASH_WaitForLastOperation) refers to stm32g4xx_hal_flash.o(.data) for .data
    stm32g4xx_hal_flash.o(i.HAL_FLASH_GetError) refers to stm32g4xx_hal_flash.o(.data) for .data
    stm32g4xx_hal_flash.o(i.HAL_FLASH_IRQHandler) refers to stm32g4xx_hal_flash_ex.o(i.FLASH_FlushCaches) for FLASH_FlushCaches
    stm32g4xx_hal_flash.o(i.HAL_FLASH_IRQHandler) refers to stm32g4xx_hal_flash.o(i.HAL_FLASH_OperationErrorCallback) for HAL_FLASH_OperationErrorCallback
    stm32g4xx_hal_flash.o(i.HAL_FLASH_IRQHandler) refers to stm32g4xx_hal_flash.o(i.HAL_FLASH_EndOfOperationCallback) for HAL_FLASH_EndOfOperationCallback
    stm32g4xx_hal_flash.o(i.HAL_FLASH_IRQHandler) refers to stm32g4xx_hal_flash_ex.o(i.FLASH_PageErase) for FLASH_PageErase
    stm32g4xx_hal_flash.o(i.HAL_FLASH_IRQHandler) refers to stm32g4xx_hal_flash.o(.data) for .data
    stm32g4xx_hal_flash.o(i.HAL_FLASH_OB_Launch) refers to stm32g4xx_hal_flash.o(i.FLASH_WaitForLastOperation) for FLASH_WaitForLastOperation
    stm32g4xx_hal_flash.o(i.HAL_FLASH_Program) refers to stm32g4xx_hal_flash.o(i.FLASH_WaitForLastOperation) for FLASH_WaitForLastOperation
    stm32g4xx_hal_flash.o(i.HAL_FLASH_Program) refers to stm32g4xx_hal_flash.o(.data) for .data
    stm32g4xx_hal_flash.o(i.HAL_FLASH_Program_IT) refers to stm32g4xx_hal_flash.o(i.FLASH_WaitForLastOperation) for FLASH_WaitForLastOperation
    stm32g4xx_hal_flash.o(i.HAL_FLASH_Program_IT) refers to stm32g4xx_hal_flash.o(.data) for .data
    stm32g4xx_hal_flash_ex.o(i.FLASH_FlushCaches) refers to stm32g4xx_hal_flash.o(.data) for pFlash
    stm32g4xx_hal_flash_ex.o(i.HAL_FLASHEx_Erase) refers to stm32g4xx_hal_flash.o(i.FLASH_WaitForLastOperation) for FLASH_WaitForLastOperation
    stm32g4xx_hal_flash_ex.o(i.HAL_FLASHEx_Erase) refers to stm32g4xx_hal_flash.o(.data) for pFlash
    stm32g4xx_hal_flash_ex.o(i.HAL_FLASHEx_Erase_IT) refers to stm32g4xx_hal_flash.o(.data) for pFlash
    stm32g4xx_hal_flash_ex.o(i.HAL_FLASHEx_OBProgram) refers to stm32g4xx_hal_flash.o(i.FLASH_WaitForLastOperation) for FLASH_WaitForLastOperation
    stm32g4xx_hal_flash_ex.o(i.HAL_FLASHEx_OBProgram) refers to stm32g4xx_hal_flash.o(.data) for pFlash
    stm32g4xx_hal_dma.o(i.HAL_DMA_PollForTransfer) refers to stm32g4xx_hal.o(i.HAL_GetTick) for HAL_GetTick
    stm32g4xx_hal_pwr.o(i.HAL_PWR_EnterSLEEPMode) refers to stm32g4xx_hal_pwr_ex.o(i.HAL_PWREx_EnableLowPowerRunMode) for HAL_PWREx_EnableLowPowerRunMode
    stm32g4xx_hal_pwr.o(i.HAL_PWR_EnterSLEEPMode) refers to stm32g4xx_hal_pwr_ex.o(i.HAL_PWREx_DisableLowPowerRunMode) for HAL_PWREx_DisableLowPowerRunMode
    stm32g4xx_hal_pwr.o(i.HAL_PWR_EnterSTOPMode) refers to stm32g4xx_hal_pwr_ex.o(i.HAL_PWREx_EnterSTOP0Mode) for HAL_PWREx_EnterSTOP0Mode
    stm32g4xx_hal_pwr.o(i.HAL_PWR_EnterSTOPMode) refers to stm32g4xx_hal_pwr_ex.o(i.HAL_PWREx_EnterSTOP1Mode) for HAL_PWREx_EnterSTOP1Mode
    stm32g4xx_hal_pwr_ex.o(i.HAL_PWREx_ControlVoltageScaling) refers to system_stm32g4xx.o(.data) for SystemCoreClock
    stm32g4xx_hal_pwr_ex.o(i.HAL_PWREx_DisableLowPowerRunMode) refers to system_stm32g4xx.o(.data) for SystemCoreClock
    stm32g4xx_hal_pwr_ex.o(i.HAL_PWREx_PVD_PVM_IRQHandler) refers to stm32g4xx_hal_pwr.o(i.HAL_PWR_PVDCallback) for HAL_PWR_PVDCallback
    stm32g4xx_hal_pwr_ex.o(i.HAL_PWREx_PVD_PVM_IRQHandler) refers to stm32g4xx_hal_pwr_ex.o(i.HAL_PWREx_PVM1Callback) for HAL_PWREx_PVM1Callback
    stm32g4xx_hal_pwr_ex.o(i.HAL_PWREx_PVD_PVM_IRQHandler) refers to stm32g4xx_hal_pwr_ex.o(i.HAL_PWREx_PVM2Callback) for HAL_PWREx_PVM2Callback
    stm32g4xx_hal_pwr_ex.o(i.HAL_PWREx_PVD_PVM_IRQHandler) refers to stm32g4xx_hal_pwr_ex.o(i.HAL_PWREx_PVM3Callback) for HAL_PWREx_PVM3Callback
    stm32g4xx_hal_pwr_ex.o(i.HAL_PWREx_PVD_PVM_IRQHandler) refers to stm32g4xx_hal_pwr_ex.o(i.HAL_PWREx_PVM4Callback) for HAL_PWREx_PVM4Callback
    stm32g4xx_hal_cortex.o(i.HAL_SYSTICK_IRQHandler) refers to stm32g4xx_hal_cortex.o(i.HAL_SYSTICK_Callback) for HAL_SYSTICK_Callback
    stm32g4xx_hal_cordic.o(i.CORDIC_DMAError) refers to stm32g4xx_hal_cordic.o(i.HAL_CORDIC_ErrorCallback) for HAL_CORDIC_ErrorCallback
    stm32g4xx_hal_cordic.o(i.CORDIC_DMAInCplt) refers to stm32g4xx_hal_cordic.o(i.HAL_CORDIC_CalculateCpltCallback) for HAL_CORDIC_CalculateCpltCallback
    stm32g4xx_hal_cordic.o(i.CORDIC_DMAOutCplt) refers to stm32g4xx_hal_cordic.o(i.HAL_CORDIC_CalculateCpltCallback) for HAL_CORDIC_CalculateCpltCallback
    stm32g4xx_hal_cordic.o(i.HAL_CORDIC_Calculate) refers to stm32g4xx_hal.o(i.HAL_GetTick) for HAL_GetTick
    stm32g4xx_hal_cordic.o(i.HAL_CORDIC_CalculateZO) refers to stm32g4xx_hal.o(i.HAL_GetTick) for HAL_GetTick
    stm32g4xx_hal_cordic.o(i.HAL_CORDIC_Calculate_DMA) refers to stm32g4xx_hal_dma.o(i.HAL_DMA_Start_IT) for HAL_DMA_Start_IT
    stm32g4xx_hal_cordic.o(i.HAL_CORDIC_Calculate_DMA) refers to stm32g4xx_hal_cordic.o(i.CORDIC_DMAError) for CORDIC_DMAError
    stm32g4xx_hal_cordic.o(i.HAL_CORDIC_Calculate_DMA) refers to stm32g4xx_hal_cordic.o(i.CORDIC_DMAOutCplt) for CORDIC_DMAOutCplt
    stm32g4xx_hal_cordic.o(i.HAL_CORDIC_Calculate_DMA) refers to stm32g4xx_hal_cordic.o(i.CORDIC_DMAInCplt) for CORDIC_DMAInCplt
    stm32g4xx_hal_cordic.o(i.HAL_CORDIC_DeInit) refers to stm32g4xx_hal_msp.o(i.HAL_CORDIC_MspDeInit) for HAL_CORDIC_MspDeInit
    stm32g4xx_hal_cordic.o(i.HAL_CORDIC_IRQHandler) refers to stm32g4xx_hal_cordic.o(i.HAL_CORDIC_CalculateCpltCallback) for HAL_CORDIC_CalculateCpltCallback
    stm32g4xx_hal_cordic.o(i.HAL_CORDIC_Init) refers to stm32g4xx_hal_msp.o(i.HAL_CORDIC_MspInit) for HAL_CORDIC_MspInit
    stm32g4xx_hal_tim.o(i.HAL_TIM_Base_DeInit) refers to stm32g4xx_hal_msp.o(i.HAL_TIM_Base_MspDeInit) for HAL_TIM_Base_MspDeInit
    stm32g4xx_hal_tim.o(i.HAL_TIM_Base_Init) refers to stm32g4xx_hal_msp.o(i.HAL_TIM_Base_MspInit) for HAL_TIM_Base_MspInit
    stm32g4xx_hal_tim.o(i.HAL_TIM_Base_Init) refers to stm32g4xx_hal_tim.o(i.TIM_Base_SetConfig) for TIM_Base_SetConfig
    stm32g4xx_hal_tim.o(i.HAL_TIM_Base_Start_DMA) refers to stm32g4xx_hal_dma.o(i.HAL_DMA_Start_IT) for HAL_DMA_Start_IT
    stm32g4xx_hal_tim.o(i.HAL_TIM_Base_Start_DMA) refers to stm32g4xx_hal_tim.o(i.TIM_DMAPeriodElapsedCplt) for TIM_DMAPeriodElapsedCplt
    stm32g4xx_hal_tim.o(i.HAL_TIM_Base_Start_DMA) refers to stm32g4xx_hal_tim.o(i.TIM_DMAPeriodElapsedHalfCplt) for TIM_DMAPeriodElapsedHalfCplt
    stm32g4xx_hal_tim.o(i.HAL_TIM_Base_Start_DMA) refers to stm32g4xx_hal_tim.o(i.TIM_DMAError) for TIM_DMAError
    stm32g4xx_hal_tim.o(i.HAL_TIM_Base_Stop_DMA) refers to stm32g4xx_hal_dma.o(i.HAL_DMA_Abort_IT) for HAL_DMA_Abort_IT
    stm32g4xx_hal_tim.o(i.HAL_TIM_DMABurst_MultiReadStart) refers to stm32g4xx_hal_dma.o(i.HAL_DMA_Start_IT) for HAL_DMA_Start_IT
    stm32g4xx_hal_tim.o(i.HAL_TIM_DMABurst_MultiReadStart) refers to stm32g4xx_hal_tim.o(i.TIM_DMAError) for TIM_DMAError
    stm32g4xx_hal_tim.o(i.HAL_TIM_DMABurst_MultiReadStart) refers to stm32g4xx_hal_tim.o(i.TIM_DMACaptureCplt) for TIM_DMACaptureCplt
    stm32g4xx_hal_tim.o(i.HAL_TIM_DMABurst_MultiReadStart) refers to stm32g4xx_hal_tim.o(i.TIM_DMACaptureHalfCplt) for TIM_DMACaptureHalfCplt
    stm32g4xx_hal_tim.o(i.HAL_TIM_DMABurst_MultiReadStart) refers to stm32g4xx_hal_tim.o(i.TIM_DMAPeriodElapsedCplt) for TIM_DMAPeriodElapsedCplt
    stm32g4xx_hal_tim.o(i.HAL_TIM_DMABurst_MultiReadStart) refers to stm32g4xx_hal_tim.o(i.TIM_DMAPeriodElapsedHalfCplt) for TIM_DMAPeriodElapsedHalfCplt
    stm32g4xx_hal_tim.o(i.HAL_TIM_DMABurst_MultiReadStart) refers to stm32g4xx_hal_tim_ex.o(i.TIMEx_DMACommutationCplt) for TIMEx_DMACommutationCplt
    stm32g4xx_hal_tim.o(i.HAL_TIM_DMABurst_MultiReadStart) refers to stm32g4xx_hal_tim_ex.o(i.TIMEx_DMACommutationHalfCplt) for TIMEx_DMACommutationHalfCplt
    stm32g4xx_hal_tim.o(i.HAL_TIM_DMABurst_MultiReadStart) refers to stm32g4xx_hal_tim.o(i.TIM_DMATriggerCplt) for TIM_DMATriggerCplt
    stm32g4xx_hal_tim.o(i.HAL_TIM_DMABurst_MultiReadStart) refers to stm32g4xx_hal_tim.o(i.TIM_DMATriggerHalfCplt) for TIM_DMATriggerHalfCplt
    stm32g4xx_hal_tim.o(i.HAL_TIM_DMABurst_MultiWriteStart) refers to stm32g4xx_hal_dma.o(i.HAL_DMA_Start_IT) for HAL_DMA_Start_IT
    stm32g4xx_hal_tim.o(i.HAL_TIM_DMABurst_MultiWriteStart) refers to stm32g4xx_hal_tim.o(i.TIM_DMAError) for TIM_DMAError
    stm32g4xx_hal_tim.o(i.HAL_TIM_DMABurst_MultiWriteStart) refers to stm32g4xx_hal_tim.o(i.TIM_DMADelayPulseCplt) for TIM_DMADelayPulseCplt
    stm32g4xx_hal_tim.o(i.HAL_TIM_DMABurst_MultiWriteStart) refers to stm32g4xx_hal_tim.o(i.TIM_DMADelayPulseHalfCplt) for TIM_DMADelayPulseHalfCplt
    stm32g4xx_hal_tim.o(i.HAL_TIM_DMABurst_MultiWriteStart) refers to stm32g4xx_hal_tim.o(i.TIM_DMAPeriodElapsedCplt) for TIM_DMAPeriodElapsedCplt
    stm32g4xx_hal_tim.o(i.HAL_TIM_DMABurst_MultiWriteStart) refers to stm32g4xx_hal_tim.o(i.TIM_DMAPeriodElapsedHalfCplt) for TIM_DMAPeriodElapsedHalfCplt
    stm32g4xx_hal_tim.o(i.HAL_TIM_DMABurst_MultiWriteStart) refers to stm32g4xx_hal_tim_ex.o(i.TIMEx_DMACommutationCplt) for TIMEx_DMACommutationCplt
    stm32g4xx_hal_tim.o(i.HAL_TIM_DMABurst_MultiWriteStart) refers to stm32g4xx_hal_tim_ex.o(i.TIMEx_DMACommutationHalfCplt) for TIMEx_DMACommutationHalfCplt
    stm32g4xx_hal_tim.o(i.HAL_TIM_DMABurst_MultiWriteStart) refers to stm32g4xx_hal_tim.o(i.TIM_DMATriggerCplt) for TIM_DMATriggerCplt
    stm32g4xx_hal_tim.o(i.HAL_TIM_DMABurst_MultiWriteStart) refers to stm32g4xx_hal_tim.o(i.TIM_DMATriggerHalfCplt) for TIM_DMATriggerHalfCplt
    stm32g4xx_hal_tim.o(i.HAL_TIM_DMABurst_ReadStart) refers to stm32g4xx_hal_tim.o(i.HAL_TIM_DMABurst_MultiReadStart) for HAL_TIM_DMABurst_MultiReadStart
    stm32g4xx_hal_tim.o(i.HAL_TIM_DMABurst_ReadStop) refers to stm32g4xx_hal_dma.o(i.HAL_DMA_Abort_IT) for HAL_DMA_Abort_IT
    stm32g4xx_hal_tim.o(i.HAL_TIM_DMABurst_WriteStart) refers to stm32g4xx_hal_tim.o(i.HAL_TIM_DMABurst_MultiWriteStart) for HAL_TIM_DMABurst_MultiWriteStart
    stm32g4xx_hal_tim.o(i.HAL_TIM_DMABurst_WriteStop) refers to stm32g4xx_hal_dma.o(i.HAL_DMA_Abort_IT) for HAL_DMA_Abort_IT
    stm32g4xx_hal_tim.o(i.HAL_TIM_Encoder_DeInit) refers to stm32g4xx_hal_tim.o(i.HAL_TIM_Encoder_MspDeInit) for HAL_TIM_Encoder_MspDeInit
    stm32g4xx_hal_tim.o(i.HAL_TIM_Encoder_Init) refers to stm32g4xx_hal_tim.o(i.HAL_TIM_Encoder_MspInit) for HAL_TIM_Encoder_MspInit
    stm32g4xx_hal_tim.o(i.HAL_TIM_Encoder_Init) refers to stm32g4xx_hal_tim.o(i.TIM_Base_SetConfig) for TIM_Base_SetConfig
    stm32g4xx_hal_tim.o(i.HAL_TIM_Encoder_Start_DMA) refers to stm32g4xx_hal_dma.o(i.HAL_DMA_Start_IT) for HAL_DMA_Start_IT
    stm32g4xx_hal_tim.o(i.HAL_TIM_Encoder_Start_DMA) refers to stm32g4xx_hal_tim.o(i.TIM_DMACaptureCplt) for TIM_DMACaptureCplt
    stm32g4xx_hal_tim.o(i.HAL_TIM_Encoder_Start_DMA) refers to stm32g4xx_hal_tim.o(i.TIM_DMACaptureHalfCplt) for TIM_DMACaptureHalfCplt
    stm32g4xx_hal_tim.o(i.HAL_TIM_Encoder_Start_DMA) refers to stm32g4xx_hal_tim.o(i.TIM_DMAError) for TIM_DMAError
    stm32g4xx_hal_tim.o(i.HAL_TIM_Encoder_Stop_DMA) refers to stm32g4xx_hal_dma.o(i.HAL_DMA_Abort_IT) for HAL_DMA_Abort_IT
    stm32g4xx_hal_tim.o(i.HAL_TIM_IC_DeInit) refers to stm32g4xx_hal_tim.o(i.HAL_TIM_IC_MspDeInit) for HAL_TIM_IC_MspDeInit
    stm32g4xx_hal_tim.o(i.HAL_TIM_IC_Init) refers to stm32g4xx_hal_tim.o(i.HAL_TIM_IC_MspInit) for HAL_TIM_IC_MspInit
    stm32g4xx_hal_tim.o(i.HAL_TIM_IC_Init) refers to stm32g4xx_hal_tim.o(i.TIM_Base_SetConfig) for TIM_Base_SetConfig
    stm32g4xx_hal_tim.o(i.HAL_TIM_IC_Start_DMA) refers to stm32g4xx_hal_dma.o(i.HAL_DMA_Start_IT) for HAL_DMA_Start_IT
    stm32g4xx_hal_tim.o(i.HAL_TIM_IC_Start_DMA) refers to stm32g4xx_hal_tim.o(i.TIM_DMACaptureCplt) for TIM_DMACaptureCplt
    stm32g4xx_hal_tim.o(i.HAL_TIM_IC_Start_DMA) refers to stm32g4xx_hal_tim.o(i.TIM_DMACaptureHalfCplt) for TIM_DMACaptureHalfCplt
    stm32g4xx_hal_tim.o(i.HAL_TIM_IC_Start_DMA) refers to stm32g4xx_hal_tim.o(i.TIM_DMAError) for TIM_DMAError
    stm32g4xx_hal_tim.o(i.HAL_TIM_IC_Stop_DMA) refers to stm32g4xx_hal_dma.o(i.HAL_DMA_Abort_IT) for HAL_DMA_Abort_IT
    stm32g4xx_hal_tim.o(i.HAL_TIM_IRQHandler) refers to stm32g4xx_hal_tim.o(i.HAL_TIM_IC_CaptureCallback) for HAL_TIM_IC_CaptureCallback
    stm32g4xx_hal_tim.o(i.HAL_TIM_IRQHandler) refers to stm32g4xx_hal_tim.o(i.HAL_TIM_OC_DelayElapsedCallback) for HAL_TIM_OC_DelayElapsedCallback
    stm32g4xx_hal_tim.o(i.HAL_TIM_IRQHandler) refers to stm32g4xx_hal_tim.o(i.HAL_TIM_PWM_PulseFinishedCallback) for HAL_TIM_PWM_PulseFinishedCallback
    stm32g4xx_hal_tim.o(i.HAL_TIM_IRQHandler) refers to stm32g4xx_hal_tim.o(i.HAL_TIM_PeriodElapsedCallback) for HAL_TIM_PeriodElapsedCallback
    stm32g4xx_hal_tim.o(i.HAL_TIM_IRQHandler) refers to stm32g4xx_hal_tim_ex.o(i.HAL_TIMEx_BreakCallback) for HAL_TIMEx_BreakCallback
    stm32g4xx_hal_tim.o(i.HAL_TIM_IRQHandler) refers to stm32g4xx_hal_tim_ex.o(i.HAL_TIMEx_Break2Callback) for HAL_TIMEx_Break2Callback
    stm32g4xx_hal_tim.o(i.HAL_TIM_IRQHandler) refers to stm32g4xx_hal_tim.o(i.HAL_TIM_TriggerCallback) for HAL_TIM_TriggerCallback
    stm32g4xx_hal_tim.o(i.HAL_TIM_IRQHandler) refers to stm32g4xx_hal_tim_ex.o(i.HAL_TIMEx_CommutCallback) for HAL_TIMEx_CommutCallback
    stm32g4xx_hal_tim.o(i.HAL_TIM_IRQHandler) refers to stm32g4xx_hal_tim_ex.o(i.HAL_TIMEx_EncoderIndexCallback) for HAL_TIMEx_EncoderIndexCallback
    stm32g4xx_hal_tim.o(i.HAL_TIM_IRQHandler) refers to stm32g4xx_hal_tim_ex.o(i.HAL_TIMEx_DirectionChangeCallback) for HAL_TIMEx_DirectionChangeCallback
    stm32g4xx_hal_tim.o(i.HAL_TIM_IRQHandler) refers to stm32g4xx_hal_tim_ex.o(i.HAL_TIMEx_IndexErrorCallback) for HAL_TIMEx_IndexErrorCallback
    stm32g4xx_hal_tim.o(i.HAL_TIM_IRQHandler) refers to stm32g4xx_hal_tim_ex.o(i.HAL_TIMEx_TransitionErrorCallback) for HAL_TIMEx_TransitionErrorCallback
    stm32g4xx_hal_tim.o(i.HAL_TIM_OC_ConfigChannel) refers to stm32g4xx_hal_tim.o(i.TIM_OC2_SetConfig) for TIM_OC2_SetConfig
    stm32g4xx_hal_tim.o(i.HAL_TIM_OC_DeInit) refers to stm32g4xx_hal_tim.o(i.HAL_TIM_OC_MspDeInit) for HAL_TIM_OC_MspDeInit
    stm32g4xx_hal_tim.o(i.HAL_TIM_OC_Init) refers to stm32g4xx_hal_tim.o(i.HAL_TIM_OC_MspInit) for HAL_TIM_OC_MspInit
    stm32g4xx_hal_tim.o(i.HAL_TIM_OC_Init) refers to stm32g4xx_hal_tim.o(i.TIM_Base_SetConfig) for TIM_Base_SetConfig
    stm32g4xx_hal_tim.o(i.HAL_TIM_OC_Start_DMA) refers to stm32g4xx_hal_dma.o(i.HAL_DMA_Start_IT) for HAL_DMA_Start_IT
    stm32g4xx_hal_tim.o(i.HAL_TIM_OC_Start_DMA) refers to stm32g4xx_hal_tim.o(i.TIM_DMADelayPulseCplt) for TIM_DMADelayPulseCplt
    stm32g4xx_hal_tim.o(i.HAL_TIM_OC_Start_DMA) refers to stm32g4xx_hal_tim.o(i.TIM_DMADelayPulseHalfCplt) for TIM_DMADelayPulseHalfCplt
    stm32g4xx_hal_tim.o(i.HAL_TIM_OC_Start_DMA) refers to stm32g4xx_hal_tim.o(i.TIM_DMAError) for TIM_DMAError
    stm32g4xx_hal_tim.o(i.HAL_TIM_OC_Stop_DMA) refers to stm32g4xx_hal_dma.o(i.HAL_DMA_Abort_IT) for HAL_DMA_Abort_IT
    stm32g4xx_hal_tim.o(i.HAL_TIM_OnePulse_ConfigChannel) refers to stm32g4xx_hal_tim.o(i.TIM_OC2_SetConfig) for TIM_OC2_SetConfig
    stm32g4xx_hal_tim.o(i.HAL_TIM_OnePulse_DeInit) refers to stm32g4xx_hal_tim.o(i.HAL_TIM_OnePulse_MspDeInit) for HAL_TIM_OnePulse_MspDeInit
    stm32g4xx_hal_tim.o(i.HAL_TIM_OnePulse_Init) refers to stm32g4xx_hal_tim.o(i.HAL_TIM_OnePulse_MspInit) for HAL_TIM_OnePulse_MspInit
    stm32g4xx_hal_tim.o(i.HAL_TIM_OnePulse_Init) refers to stm32g4xx_hal_tim.o(i.TIM_Base_SetConfig) for TIM_Base_SetConfig
    stm32g4xx_hal_tim.o(i.HAL_TIM_PWM_ConfigChannel) refers to stm32g4xx_hal_tim.o(i.TIM_OC2_SetConfig) for TIM_OC2_SetConfig
    stm32g4xx_hal_tim.o(i.HAL_TIM_PWM_DeInit) refers to stm32g4xx_hal_tim.o(i.HAL_TIM_PWM_MspDeInit) for HAL_TIM_PWM_MspDeInit
    stm32g4xx_hal_tim.o(i.HAL_TIM_PWM_Init) refers to stm32g4xx_hal_tim.o(i.HAL_TIM_PWM_MspInit) for HAL_TIM_PWM_MspInit
    stm32g4xx_hal_tim.o(i.HAL_TIM_PWM_Init) refers to stm32g4xx_hal_tim.o(i.TIM_Base_SetConfig) for TIM_Base_SetConfig
    stm32g4xx_hal_tim.o(i.HAL_TIM_PWM_Start_DMA) refers to stm32g4xx_hal_dma.o(i.HAL_DMA_Start_IT) for HAL_DMA_Start_IT
    stm32g4xx_hal_tim.o(i.HAL_TIM_PWM_Start_DMA) refers to stm32g4xx_hal_tim.o(i.TIM_DMADelayPulseCplt) for TIM_DMADelayPulseCplt
    stm32g4xx_hal_tim.o(i.HAL_TIM_PWM_Start_DMA) refers to stm32g4xx_hal_tim.o(i.TIM_DMADelayPulseHalfCplt) for TIM_DMADelayPulseHalfCplt
    stm32g4xx_hal_tim.o(i.HAL_TIM_PWM_Start_DMA) refers to stm32g4xx_hal_tim.o(i.TIM_DMAError) for TIM_DMAError
    stm32g4xx_hal_tim.o(i.HAL_TIM_PWM_Stop_DMA) refers to stm32g4xx_hal_dma.o(i.HAL_DMA_Abort_IT) for HAL_DMA_Abort_IT
    stm32g4xx_hal_tim.o(i.HAL_TIM_SlaveConfigSynchro) refers to stm32g4xx_hal_tim.o(i.TIM_SlaveTimer_SetConfig) for TIM_SlaveTimer_SetConfig
    stm32g4xx_hal_tim.o(i.HAL_TIM_SlaveConfigSynchro_IT) refers to stm32g4xx_hal_tim.o(i.TIM_SlaveTimer_SetConfig) for TIM_SlaveTimer_SetConfig
    stm32g4xx_hal_tim.o(i.TIM_DMACaptureCplt) refers to stm32g4xx_hal_tim.o(i.HAL_TIM_IC_CaptureCallback) for HAL_TIM_IC_CaptureCallback
    stm32g4xx_hal_tim.o(i.TIM_DMACaptureHalfCplt) refers to stm32g4xx_hal_tim.o(i.HAL_TIM_IC_CaptureHalfCpltCallback) for HAL_TIM_IC_CaptureHalfCpltCallback
    stm32g4xx_hal_tim.o(i.TIM_DMADelayPulseCplt) refers to stm32g4xx_hal_tim.o(i.HAL_TIM_PWM_PulseFinishedCallback) for HAL_TIM_PWM_PulseFinishedCallback
    stm32g4xx_hal_tim.o(i.TIM_DMADelayPulseHalfCplt) refers to stm32g4xx_hal_tim.o(i.HAL_TIM_PWM_PulseFinishedHalfCpltCallback) for HAL_TIM_PWM_PulseFinishedHalfCpltCallback
    stm32g4xx_hal_tim.o(i.TIM_DMAError) refers to stm32g4xx_hal_tim.o(i.HAL_TIM_ErrorCallback) for HAL_TIM_ErrorCallback
    stm32g4xx_hal_tim.o(i.TIM_DMAPeriodElapsedCplt) refers to stm32g4xx_hal_tim.o(i.HAL_TIM_PeriodElapsedCallback) for HAL_TIM_PeriodElapsedCallback
    stm32g4xx_hal_tim.o(i.TIM_DMAPeriodElapsedHalfCplt) refers to stm32g4xx_hal_tim.o(i.HAL_TIM_PeriodElapsedHalfCpltCallback) for HAL_TIM_PeriodElapsedHalfCpltCallback
    stm32g4xx_hal_tim.o(i.TIM_DMATriggerCplt) refers to stm32g4xx_hal_tim.o(i.HAL_TIM_TriggerCallback) for HAL_TIM_TriggerCallback
    stm32g4xx_hal_tim.o(i.TIM_DMATriggerHalfCplt) refers to stm32g4xx_hal_tim.o(i.HAL_TIM_TriggerHalfCpltCallback) for HAL_TIM_TriggerHalfCpltCallback
    stm32g4xx_hal_tim_ex.o(i.HAL_TIMEx_ConfigCommutEvent_DMA) refers to stm32g4xx_hal_tim_ex.o(i.TIMEx_DMACommutationCplt) for TIMEx_DMACommutationCplt
    stm32g4xx_hal_tim_ex.o(i.HAL_TIMEx_ConfigCommutEvent_DMA) refers to stm32g4xx_hal_tim_ex.o(i.TIMEx_DMACommutationHalfCplt) for TIMEx_DMACommutationHalfCplt
    stm32g4xx_hal_tim_ex.o(i.HAL_TIMEx_ConfigCommutEvent_DMA) refers to stm32g4xx_hal_tim.o(i.TIM_DMAError) for TIM_DMAError
    stm32g4xx_hal_tim_ex.o(i.HAL_TIMEx_ConfigEncoderIndex) refers to stm32g4xx_hal_tim.o(i.TIM_ETR_SetConfig) for TIM_ETR_SetConfig
    stm32g4xx_hal_tim_ex.o(i.HAL_TIMEx_HallSensor_DeInit) refers to stm32g4xx_hal_tim_ex.o(i.HAL_TIMEx_HallSensor_MspDeInit) for HAL_TIMEx_HallSensor_MspDeInit
    stm32g4xx_hal_tim_ex.o(i.HAL_TIMEx_HallSensor_Init) refers to stm32g4xx_hal_tim_ex.o(i.HAL_TIMEx_HallSensor_MspInit) for HAL_TIMEx_HallSensor_MspInit
    stm32g4xx_hal_tim_ex.o(i.HAL_TIMEx_HallSensor_Init) refers to stm32g4xx_hal_tim.o(i.TIM_Base_SetConfig) for TIM_Base_SetConfig
    stm32g4xx_hal_tim_ex.o(i.HAL_TIMEx_HallSensor_Init) refers to stm32g4xx_hal_tim.o(i.TIM_TI1_SetConfig) for TIM_TI1_SetConfig
    stm32g4xx_hal_tim_ex.o(i.HAL_TIMEx_HallSensor_Init) refers to stm32g4xx_hal_tim.o(i.TIM_OC2_SetConfig) for TIM_OC2_SetConfig
    stm32g4xx_hal_tim_ex.o(i.HAL_TIMEx_HallSensor_Start) refers to stm32g4xx_hal_tim.o(i.TIM_CCxChannelCmd) for TIM_CCxChannelCmd
    stm32g4xx_hal_tim_ex.o(i.HAL_TIMEx_HallSensor_Start_DMA) refers to stm32g4xx_hal_tim.o(i.TIM_CCxChannelCmd) for TIM_CCxChannelCmd
    stm32g4xx_hal_tim_ex.o(i.HAL_TIMEx_HallSensor_Start_DMA) refers to stm32g4xx_hal_dma.o(i.HAL_DMA_Start_IT) for HAL_DMA_Start_IT
    stm32g4xx_hal_tim_ex.o(i.HAL_TIMEx_HallSensor_Start_DMA) refers to stm32g4xx_hal_tim.o(i.TIM_DMACaptureCplt) for TIM_DMACaptureCplt
    stm32g4xx_hal_tim_ex.o(i.HAL_TIMEx_HallSensor_Start_DMA) refers to stm32g4xx_hal_tim.o(i.TIM_DMACaptureHalfCplt) for TIM_DMACaptureHalfCplt
    stm32g4xx_hal_tim_ex.o(i.HAL_TIMEx_HallSensor_Start_DMA) refers to stm32g4xx_hal_tim.o(i.TIM_DMAError) for TIM_DMAError
    stm32g4xx_hal_tim_ex.o(i.HAL_TIMEx_HallSensor_Start_IT) refers to stm32g4xx_hal_tim.o(i.TIM_CCxChannelCmd) for TIM_CCxChannelCmd
    stm32g4xx_hal_tim_ex.o(i.HAL_TIMEx_HallSensor_Stop) refers to stm32g4xx_hal_tim.o(i.TIM_CCxChannelCmd) for TIM_CCxChannelCmd
    stm32g4xx_hal_tim_ex.o(i.HAL_TIMEx_HallSensor_Stop_DMA) refers to stm32g4xx_hal_tim.o(i.TIM_CCxChannelCmd) for TIM_CCxChannelCmd
    stm32g4xx_hal_tim_ex.o(i.HAL_TIMEx_HallSensor_Stop_DMA) refers to stm32g4xx_hal_dma.o(i.HAL_DMA_Abort_IT) for HAL_DMA_Abort_IT
    stm32g4xx_hal_tim_ex.o(i.HAL_TIMEx_HallSensor_Stop_IT) refers to stm32g4xx_hal_tim.o(i.TIM_CCxChannelCmd) for TIM_CCxChannelCmd
    stm32g4xx_hal_tim_ex.o(i.HAL_TIMEx_OCN_Start_DMA) refers to stm32g4xx_hal_dma.o(i.HAL_DMA_Start_IT) for HAL_DMA_Start_IT
    stm32g4xx_hal_tim_ex.o(i.HAL_TIMEx_OCN_Start_DMA) refers to stm32g4xx_hal_tim.o(i.TIM_DMADelayPulseCplt) for TIM_DMADelayPulseCplt
    stm32g4xx_hal_tim_ex.o(i.HAL_TIMEx_OCN_Start_DMA) refers to stm32g4xx_hal_tim.o(i.TIM_DMADelayPulseHalfCplt) for TIM_DMADelayPulseHalfCplt
    stm32g4xx_hal_tim_ex.o(i.HAL_TIMEx_OCN_Start_DMA) refers to stm32g4xx_hal_tim.o(i.TIM_DMAError) for TIM_DMAError
    stm32g4xx_hal_tim_ex.o(i.HAL_TIMEx_OCN_Stop_DMA) refers to stm32g4xx_hal_dma.o(i.HAL_DMA_Abort_IT) for HAL_DMA_Abort_IT
    stm32g4xx_hal_tim_ex.o(i.HAL_TIMEx_PWMN_Start_DMA) refers to stm32g4xx_hal_dma.o(i.HAL_DMA_Start_IT) for HAL_DMA_Start_IT
    stm32g4xx_hal_tim_ex.o(i.HAL_TIMEx_PWMN_Start_DMA) refers to stm32g4xx_hal_tim.o(i.TIM_DMADelayPulseCplt) for TIM_DMADelayPulseCplt
    stm32g4xx_hal_tim_ex.o(i.HAL_TIMEx_PWMN_Start_DMA) refers to stm32g4xx_hal_tim.o(i.TIM_DMADelayPulseHalfCplt) for TIM_DMADelayPulseHalfCplt
    stm32g4xx_hal_tim_ex.o(i.HAL_TIMEx_PWMN_Start_DMA) refers to stm32g4xx_hal_tim.o(i.TIM_DMAError) for TIM_DMAError
    stm32g4xx_hal_tim_ex.o(i.HAL_TIMEx_PWMN_Stop_DMA) refers to stm32g4xx_hal_dma.o(i.HAL_DMA_Abort_IT) for HAL_DMA_Abort_IT
    stm32g4xx_hal_tim_ex.o(i.HAL_TIMEx_ReArmBreakInput) refers to stm32g4xx_hal.o(i.HAL_GetTick) for HAL_GetTick
    stm32g4xx_hal_tim_ex.o(i.TIMEx_DMACommutationCplt) refers to stm32g4xx_hal_tim_ex.o(i.HAL_TIMEx_CommutCallback) for HAL_TIMEx_CommutCallback
    stm32g4xx_hal_tim_ex.o(i.TIMEx_DMACommutationHalfCplt) refers to stm32g4xx_hal_tim_ex.o(i.HAL_TIMEx_CommutHalfCpltCallback) for HAL_TIMEx_CommutHalfCpltCallback
    stm32g4xx_hal_uart.o(i.HAL_HalfDuplex_Init) refers to stm32g4xx_hal_msp.o(i.HAL_UART_MspInit) for HAL_UART_MspInit
    stm32g4xx_hal_uart.o(i.HAL_HalfDuplex_Init) refers to stm32g4xx_hal_uart.o(i.UART_SetConfig) for UART_SetConfig
    stm32g4xx_hal_uart.o(i.HAL_HalfDuplex_Init) refers to stm32g4xx_hal_uart.o(i.UART_AdvFeatureConfig) for UART_AdvFeatureConfig
    stm32g4xx_hal_uart.o(i.HAL_HalfDuplex_Init) refers to stm32g4xx_hal_uart.o(i.UART_CheckIdleState) for UART_CheckIdleState
    stm32g4xx_hal_uart.o(i.HAL_LIN_Init) refers to stm32g4xx_hal_msp.o(i.HAL_UART_MspInit) for HAL_UART_MspInit
    stm32g4xx_hal_uart.o(i.HAL_LIN_Init) refers to stm32g4xx_hal_uart.o(i.UART_SetConfig) for UART_SetConfig
    stm32g4xx_hal_uart.o(i.HAL_LIN_Init) refers to stm32g4xx_hal_uart.o(i.UART_AdvFeatureConfig) for UART_AdvFeatureConfig
    stm32g4xx_hal_uart.o(i.HAL_LIN_Init) refers to stm32g4xx_hal_uart.o(i.UART_CheckIdleState) for UART_CheckIdleState
    stm32g4xx_hal_uart.o(i.HAL_MultiProcessor_DisableMuteMode) refers to stm32g4xx_hal_uart.o(i.UART_CheckIdleState) for UART_CheckIdleState
    stm32g4xx_hal_uart.o(i.HAL_MultiProcessor_EnableMuteMode) refers to stm32g4xx_hal_uart.o(i.UART_CheckIdleState) for UART_CheckIdleState
    stm32g4xx_hal_uart.o(i.HAL_MultiProcessor_Init) refers to stm32g4xx_hal_msp.o(i.HAL_UART_MspInit) for HAL_UART_MspInit
    stm32g4xx_hal_uart.o(i.HAL_MultiProcessor_Init) refers to stm32g4xx_hal_uart.o(i.UART_SetConfig) for UART_SetConfig
    stm32g4xx_hal_uart.o(i.HAL_MultiProcessor_Init) refers to stm32g4xx_hal_uart.o(i.UART_AdvFeatureConfig) for UART_AdvFeatureConfig
    stm32g4xx_hal_uart.o(i.HAL_MultiProcessor_Init) refers to stm32g4xx_hal_uart.o(i.UART_CheckIdleState) for UART_CheckIdleState
    stm32g4xx_hal_uart.o(i.HAL_UART_Abort) refers to stm32g4xx_hal_dma.o(i.HAL_DMA_Abort) for HAL_DMA_Abort
    stm32g4xx_hal_uart.o(i.HAL_UART_Abort) refers to stm32g4xx_hal_dma.o(i.HAL_DMA_GetError) for HAL_DMA_GetError
    stm32g4xx_hal_uart.o(i.HAL_UART_AbortReceive) refers to stm32g4xx_hal_dma.o(i.HAL_DMA_Abort) for HAL_DMA_Abort
    stm32g4xx_hal_uart.o(i.HAL_UART_AbortReceive) refers to stm32g4xx_hal_dma.o(i.HAL_DMA_GetError) for HAL_DMA_GetError
    stm32g4xx_hal_uart.o(i.HAL_UART_AbortReceive_IT) refers to stm32g4xx_hal_dma.o(i.HAL_DMA_Abort_IT) for HAL_DMA_Abort_IT
    stm32g4xx_hal_uart.o(i.HAL_UART_AbortReceive_IT) refers to stm32g4xx_hal_uart.o(i.HAL_UART_AbortReceiveCpltCallback) for HAL_UART_AbortReceiveCpltCallback
    stm32g4xx_hal_uart.o(i.HAL_UART_AbortReceive_IT) refers to stm32g4xx_hal_uart.o(i.UART_DMARxOnlyAbortCallback) for UART_DMARxOnlyAbortCallback
    stm32g4xx_hal_uart.o(i.HAL_UART_AbortTransmit) refers to stm32g4xx_hal_dma.o(i.HAL_DMA_Abort) for HAL_DMA_Abort
    stm32g4xx_hal_uart.o(i.HAL_UART_AbortTransmit) refers to stm32g4xx_hal_dma.o(i.HAL_DMA_GetError) for HAL_DMA_GetError
    stm32g4xx_hal_uart.o(i.HAL_UART_AbortTransmit_IT) refers to stm32g4xx_hal_dma.o(i.HAL_DMA_Abort_IT) for HAL_DMA_Abort_IT
    stm32g4xx_hal_uart.o(i.HAL_UART_AbortTransmit_IT) refers to stm32g4xx_hal_uart.o(i.HAL_UART_AbortTransmitCpltCallback) for HAL_UART_AbortTransmitCpltCallback
    stm32g4xx_hal_uart.o(i.HAL_UART_AbortTransmit_IT) refers to stm32g4xx_hal_uart.o(i.UART_DMATxOnlyAbortCallback) for UART_DMATxOnlyAbortCallback
    stm32g4xx_hal_uart.o(i.HAL_UART_Abort_IT) refers to stm32g4xx_hal_dma.o(i.HAL_DMA_Abort_IT) for HAL_DMA_Abort_IT
    stm32g4xx_hal_uart.o(i.HAL_UART_Abort_IT) refers to stm32g4xx_hal_uart.o(i.HAL_UART_AbortCpltCallback) for HAL_UART_AbortCpltCallback
    stm32g4xx_hal_uart.o(i.HAL_UART_Abort_IT) refers to stm32g4xx_hal_uart.o(i.UART_DMATxAbortCallback) for UART_DMATxAbortCallback
    stm32g4xx_hal_uart.o(i.HAL_UART_Abort_IT) refers to stm32g4xx_hal_uart.o(i.UART_DMARxAbortCallback) for UART_DMARxAbortCallback
    stm32g4xx_hal_uart.o(i.HAL_UART_DMAStop) refers to stm32g4xx_hal_dma.o(i.HAL_DMA_Abort) for HAL_DMA_Abort
    stm32g4xx_hal_uart.o(i.HAL_UART_DMAStop) refers to stm32g4xx_hal_dma.o(i.HAL_DMA_GetError) for HAL_DMA_GetError
    stm32g4xx_hal_uart.o(i.HAL_UART_DeInit) refers to stm32g4xx_hal_msp.o(i.HAL_UART_MspDeInit) for HAL_UART_MspDeInit
    stm32g4xx_hal_uart.o(i.HAL_UART_IRQHandler) refers to stm32g4xx_hal_dma.o(i.HAL_DMA_Abort_IT) for HAL_DMA_Abort_IT
    stm32g4xx_hal_uart.o(i.HAL_UART_IRQHandler) refers to stm32g4xx_hal_uart.o(i.HAL_UART_ErrorCallback) for HAL_UART_ErrorCallback
    stm32g4xx_hal_uart.o(i.HAL_UART_IRQHandler) refers to stm32g4xx_hal_uart_ex.o(i.HAL_UARTEx_WakeupCallback) for HAL_UARTEx_WakeupCallback
    stm32g4xx_hal_uart.o(i.HAL_UART_IRQHandler) refers to stm32g4xx_hal_uart.o(i.HAL_UART_TxCpltCallback) for HAL_UART_TxCpltCallback
    stm32g4xx_hal_uart.o(i.HAL_UART_IRQHandler) refers to stm32g4xx_hal_uart_ex.o(i.HAL_UARTEx_TxFifoEmptyCallback) for HAL_UARTEx_TxFifoEmptyCallback
    stm32g4xx_hal_uart.o(i.HAL_UART_IRQHandler) refers to stm32g4xx_hal_uart_ex.o(i.HAL_UARTEx_RxFifoFullCallback) for HAL_UARTEx_RxFifoFullCallback
    stm32g4xx_hal_uart.o(i.HAL_UART_IRQHandler) refers to stm32g4xx_hal_uart.o(i.UART_DMAAbortOnError) for UART_DMAAbortOnError
    stm32g4xx_hal_uart.o(i.HAL_UART_Init) refers to stm32g4xx_hal_msp.o(i.HAL_UART_MspInit) for HAL_UART_MspInit
    stm32g4xx_hal_uart.o(i.HAL_UART_Init) refers to stm32g4xx_hal_uart.o(i.UART_SetConfig) for UART_SetConfig
    stm32g4xx_hal_uart.o(i.HAL_UART_Init) refers to stm32g4xx_hal_uart.o(i.UART_AdvFeatureConfig) for UART_AdvFeatureConfig
    stm32g4xx_hal_uart.o(i.HAL_UART_Init) refers to stm32g4xx_hal_uart.o(i.UART_CheckIdleState) for UART_CheckIdleState
    stm32g4xx_hal_uart.o(i.HAL_UART_Receive) refers to stm32g4xx_hal.o(i.HAL_GetTick) for HAL_GetTick
    stm32g4xx_hal_uart.o(i.HAL_UART_Receive_DMA) refers to stm32g4xx_hal_dma.o(i.HAL_DMA_Start_IT) for HAL_DMA_Start_IT
    stm32g4xx_hal_uart.o(i.HAL_UART_Receive_DMA) refers to stm32g4xx_hal_uart.o(i.UART_DMAReceiveCplt) for UART_DMAReceiveCplt
    stm32g4xx_hal_uart.o(i.HAL_UART_Receive_DMA) refers to stm32g4xx_hal_uart.o(i.UART_DMARxHalfCplt) for UART_DMARxHalfCplt
    stm32g4xx_hal_uart.o(i.HAL_UART_Receive_DMA) refers to stm32g4xx_hal_uart.o(i.UART_DMAError) for UART_DMAError
    stm32g4xx_hal_uart.o(i.HAL_UART_Receive_IT) refers to stm32g4xx_hal_uart.o(i.UART_RxISR_8BIT_FIFOEN) for UART_RxISR_8BIT_FIFOEN
    stm32g4xx_hal_uart.o(i.HAL_UART_Receive_IT) refers to stm32g4xx_hal_uart.o(i.UART_RxISR_16BIT_FIFOEN) for UART_RxISR_16BIT_FIFOEN
    stm32g4xx_hal_uart.o(i.HAL_UART_Receive_IT) refers to stm32g4xx_hal_uart.o(i.UART_RxISR_8BIT) for UART_RxISR_8BIT
    stm32g4xx_hal_uart.o(i.HAL_UART_Receive_IT) refers to stm32g4xx_hal_uart.o(i.UART_RxISR_16BIT) for UART_RxISR_16BIT
    stm32g4xx_hal_uart.o(i.HAL_UART_Transmit) refers to stm32g4xx_hal.o(i.HAL_GetTick) for HAL_GetTick
    stm32g4xx_hal_uart.o(i.HAL_UART_Transmit) refers to stm32g4xx_hal_uart.o(i.UART_WaitOnFlagUntilTimeout) for UART_WaitOnFlagUntilTimeout
    stm32g4xx_hal_uart.o(i.HAL_UART_Transmit_DMA) refers to stm32g4xx_hal_dma.o(i.HAL_DMA_Start_IT) for HAL_DMA_Start_IT
    stm32g4xx_hal_uart.o(i.HAL_UART_Transmit_DMA) refers to stm32g4xx_hal_uart.o(i.UART_DMATransmitCplt) for UART_DMATransmitCplt
    stm32g4xx_hal_uart.o(i.HAL_UART_Transmit_DMA) refers to stm32g4xx_hal_uart.o(i.UART_DMATxHalfCplt) for UART_DMATxHalfCplt
    stm32g4xx_hal_uart.o(i.HAL_UART_Transmit_DMA) refers to stm32g4xx_hal_uart.o(i.UART_DMAError) for UART_DMAError
    stm32g4xx_hal_uart.o(i.HAL_UART_Transmit_IT) refers to stm32g4xx_hal_uart.o(i.UART_TxISR_16BIT) for UART_TxISR_16BIT
    stm32g4xx_hal_uart.o(i.HAL_UART_Transmit_IT) refers to stm32g4xx_hal_uart.o(i.UART_TxISR_8BIT) for UART_TxISR_8BIT
    stm32g4xx_hal_uart.o(i.HAL_UART_Transmit_IT) refers to stm32g4xx_hal_uart.o(i.UART_TxISR_8BIT_FIFOEN) for UART_TxISR_8BIT_FIFOEN
    stm32g4xx_hal_uart.o(i.HAL_UART_Transmit_IT) refers to stm32g4xx_hal_uart.o(i.UART_TxISR_16BIT_FIFOEN) for UART_TxISR_16BIT_FIFOEN
    stm32g4xx_hal_uart.o(i.UART_CheckIdleState) refers to stm32g4xx_hal.o(i.HAL_GetTick) for HAL_GetTick
    stm32g4xx_hal_uart.o(i.UART_CheckIdleState) refers to stm32g4xx_hal_uart.o(i.UART_WaitOnFlagUntilTimeout) for UART_WaitOnFlagUntilTimeout
    stm32g4xx_hal_uart.o(i.UART_DMAAbortOnError) refers to stm32g4xx_hal_uart.o(i.HAL_UART_ErrorCallback) for HAL_UART_ErrorCallback
    stm32g4xx_hal_uart.o(i.UART_DMAError) refers to stm32g4xx_hal_uart.o(i.HAL_UART_ErrorCallback) for HAL_UART_ErrorCallback
    stm32g4xx_hal_uart.o(i.UART_DMAReceiveCplt) refers to stm32g4xx_hal_uart.o(i.HAL_UART_RxCpltCallback) for HAL_UART_RxCpltCallback
    stm32g4xx_hal_uart.o(i.UART_DMARxAbortCallback) refers to stm32g4xx_hal_uart.o(i.HAL_UART_AbortCpltCallback) for HAL_UART_AbortCpltCallback
    stm32g4xx_hal_uart.o(i.UART_DMARxHalfCplt) refers to stm32g4xx_hal_uart.o(i.HAL_UART_RxHalfCpltCallback) for HAL_UART_RxHalfCpltCallback
    stm32g4xx_hal_uart.o(i.UART_DMARxOnlyAbortCallback) refers to stm32g4xx_hal_uart.o(i.HAL_UART_AbortReceiveCpltCallback) for HAL_UART_AbortReceiveCpltCallback
    stm32g4xx_hal_uart.o(i.UART_DMATransmitCplt) refers to stm32g4xx_hal_uart.o(i.HAL_UART_TxCpltCallback) for HAL_UART_TxCpltCallback
    stm32g4xx_hal_uart.o(i.UART_DMATxAbortCallback) refers to stm32g4xx_hal_uart.o(i.HAL_UART_AbortCpltCallback) for HAL_UART_AbortCpltCallback
    stm32g4xx_hal_uart.o(i.UART_DMATxHalfCplt) refers to stm32g4xx_hal_uart.o(i.HAL_UART_TxHalfCpltCallback) for HAL_UART_TxHalfCpltCallback
    stm32g4xx_hal_uart.o(i.UART_DMATxOnlyAbortCallback) refers to stm32g4xx_hal_uart.o(i.HAL_UART_AbortTransmitCpltCallback) for HAL_UART_AbortTransmitCpltCallback
    stm32g4xx_hal_uart.o(i.UART_RxISR_16BIT) refers to stm32g4xx_hal_uart.o(i.HAL_UART_RxCpltCallback) for HAL_UART_RxCpltCallback
    stm32g4xx_hal_uart.o(i.UART_RxISR_16BIT_FIFOEN) refers to stm32g4xx_hal_uart.o(i.HAL_UART_RxCpltCallback) for HAL_UART_RxCpltCallback
    stm32g4xx_hal_uart.o(i.UART_RxISR_16BIT_FIFOEN) refers to stm32g4xx_hal_uart.o(i.UART_RxISR_16BIT) for UART_RxISR_16BIT
    stm32g4xx_hal_uart.o(i.UART_RxISR_8BIT) refers to stm32g4xx_hal_uart.o(i.HAL_UART_RxCpltCallback) for HAL_UART_RxCpltCallback
    stm32g4xx_hal_uart.o(i.UART_RxISR_8BIT_FIFOEN) refers to stm32g4xx_hal_uart.o(i.HAL_UART_RxCpltCallback) for HAL_UART_RxCpltCallback
    stm32g4xx_hal_uart.o(i.UART_RxISR_8BIT_FIFOEN) refers to stm32g4xx_hal_uart.o(i.UART_RxISR_8BIT) for UART_RxISR_8BIT
    stm32g4xx_hal_uart.o(i.UART_SetConfig) refers to stm32g4xx_hal_rcc.o(i.HAL_RCC_GetPCLK1Freq) for HAL_RCC_GetPCLK1Freq
    stm32g4xx_hal_uart.o(i.UART_SetConfig) refers to stm32g4xx_hal_rcc.o(i.HAL_RCC_GetSysClockFreq) for HAL_RCC_GetSysClockFreq
    stm32g4xx_hal_uart.o(i.UART_SetConfig) refers to uldiv.o(.text) for __aeabi_uldivmod
    stm32g4xx_hal_uart.o(i.UART_SetConfig) refers to stm32g4xx_hal_rcc.o(i.HAL_RCC_GetPCLK2Freq) for HAL_RCC_GetPCLK2Freq
    stm32g4xx_hal_uart.o(i.UART_WaitOnFlagUntilTimeout) refers to stm32g4xx_hal.o(i.HAL_GetTick) for HAL_GetTick
    stm32g4xx_hal_uart_ex.o(i.HAL_MultiProcessorEx_AddressLength_Set) refers to stm32g4xx_hal_uart.o(i.UART_CheckIdleState) for UART_CheckIdleState
    stm32g4xx_hal_uart_ex.o(i.HAL_RS485Ex_Init) refers to stm32g4xx_hal_msp.o(i.HAL_UART_MspInit) for HAL_UART_MspInit
    stm32g4xx_hal_uart_ex.o(i.HAL_RS485Ex_Init) refers to stm32g4xx_hal_uart.o(i.UART_SetConfig) for UART_SetConfig
    stm32g4xx_hal_uart_ex.o(i.HAL_RS485Ex_Init) refers to stm32g4xx_hal_uart.o(i.UART_AdvFeatureConfig) for UART_AdvFeatureConfig
    stm32g4xx_hal_uart_ex.o(i.HAL_RS485Ex_Init) refers to stm32g4xx_hal_uart.o(i.UART_CheckIdleState) for UART_CheckIdleState
    stm32g4xx_hal_uart_ex.o(i.HAL_UARTEx_SetRxFifoThreshold) refers to stm32g4xx_hal_uart_ex.o(i.HAL_UARTEx_EnableFifoMode) for i.HAL_UARTEx_EnableFifoMode
    stm32g4xx_hal_uart_ex.o(i.HAL_UARTEx_SetTxFifoThreshold) refers to stm32g4xx_hal_uart_ex.o(i.HAL_UARTEx_EnableFifoMode) for i.HAL_UARTEx_EnableFifoMode
    stm32g4xx_hal_uart_ex.o(i.HAL_UARTEx_StopModeWakeUpSourceConfig) refers to stm32g4xx_hal.o(i.HAL_GetTick) for HAL_GetTick
    stm32g4xx_hal_uart_ex.o(i.HAL_UARTEx_StopModeWakeUpSourceConfig) refers to stm32g4xx_hal_uart.o(i.UART_WaitOnFlagUntilTimeout) for UART_WaitOnFlagUntilTimeout
    system_stm32g4xx.o(i.SystemCoreClockUpdate) refers to system_stm32g4xx.o(.data) for .data
    system_stm32g4xx.o(i.SystemCoreClockUpdate) refers to system_stm32g4xx.o(.constdata) for .constdata
    ntc_temperature_sensor.o(i.NTC_CalcAvTemp) refers to regular_conversion_manager.o(i.RCM_ExecRegularConv) for RCM_ExecRegularConv
    ntc_temperature_sensor.o(i.NTC_CalcAvTemp) refers to ntc_temperature_sensor.o(i.NTC_SetFaultState) for NTC_SetFaultState
    ntc_temperature_sensor.o(i.NTC_Init) refers to regular_conversion_manager.o(i.RCM_RegisterRegConv) for RCM_RegisterRegConv
    ntc_temperature_sensor.o(i.NTC_Init) refers to ntc_temperature_sensor.o(i.NTC_Clear) for NTC_Clear
    pid_regulator.o(i.PID_Controller) refers to pid_regulator.o(i.PI_Controller) for PI_Controller
    pid_regulator.o(i.PID_SetKIDivisorPOW2) refers to pid_regulator.o(i.PID_SetUpperIntegralTermLimit) for PID_SetUpperIntegralTermLimit
    pid_regulator.o(i.PID_SetKIDivisorPOW2) refers to pid_regulator.o(i.PID_SetLowerIntegralTermLimit) for PID_SetLowerIntegralTermLimit
    pqd_motor_power_measurement.o(i.PQD_CalcElMotorPower) refers to bus_voltage_sensor.o(i.VBS_GetAvBusVoltage_V) for VBS_GetAvBusVoltage_V
    pqd_motor_power_measurement.o(i.PQD_CalcElMotorPower) refers to motor_power_measurement.o(i.MPM_CalcElMotorPower) for MPM_CalcElMotorPower
    pwm_curr_fdbk.o(i.PWMC_CurrentReadingCalibr) refers to pwm_curr_fdbk.o(i.PWMC_SwitchOffPWM) for PWMC_SwitchOffPWM
    r_divider_bus_voltage_sensor.o(i.RVBS_CalcAvVbus) refers to regular_conversion_manager.o(i.RCM_ExecRegularConv) for RCM_ExecRegularConv
    r_divider_bus_voltage_sensor.o(i.RVBS_CalcAvVbus) refers to r_divider_bus_voltage_sensor.o(i.RVBS_CheckFaultState) for RVBS_CheckFaultState
    r_divider_bus_voltage_sensor.o(i.RVBS_CalcAvVbusFilt) refers to regular_conversion_manager.o(i.RCM_ExecRegularConv) for RCM_ExecRegularConv
    r_divider_bus_voltage_sensor.o(i.RVBS_CalcAvVbusFilt) refers to r_divider_bus_voltage_sensor.o(i.RVBS_CheckFaultState) for RVBS_CheckFaultState
    r_divider_bus_voltage_sensor.o(i.RVBS_Init) refers to regular_conversion_manager.o(i.RCM_RegisterRegConv) for RCM_RegisterRegConv
    r_divider_bus_voltage_sensor.o(i.RVBS_Init) refers to r_divider_bus_voltage_sensor.o(i.RVBS_Clear) for RVBS_Clear
    ramp_ext_mngr.o(i.REMNG_ExecRamp) refers to ramp_ext_mngr.o(i.getScalingFactor) for getScalingFactor
    speed_torq_ctrl.o(i.STC_CalcTorqueReference) refers to speed_pos_fdbk.o(i.SPD_GetAvrgMecSpeedUnit) for SPD_GetAvrgMecSpeedUnit
    speed_torq_ctrl.o(i.STC_CalcTorqueReference) refers to pid_regulator.o(i.PI_Controller) for PI_Controller
    speed_torq_ctrl.o(i.STC_Clear) refers to pid_regulator.o(i.PID_SetIntegralTerm) for PID_SetIntegralTerm
    speed_torq_ctrl.o(i.STC_ExecRamp) refers to speed_torq_ctrl.o(i.STC_GetTorqueRef) for STC_GetTorqueRef
    speed_torq_ctrl.o(i.STC_ForceSpeedReferenceToCurrentSpeed) refers to speed_pos_fdbk.o(i.SPD_GetAvrgMecSpeedUnit) for SPD_GetAvrgMecSpeedUnit
    state_machine.o(i.STM_NextState) refers to state_machine.o(i.STM_FaultProcessing) for STM_FaultProcessing
    virtual_speed_sensor.o(i.VSS_CalcAvrgMecSpeedUnit) refers to speed_pos_fdbk.o(i.SPD_IsMecSpeedReliable) for SPD_IsMecSpeedReliable
    virtual_speed_sensor.o(i.VSS_Init) refers to virtual_speed_sensor.o(i.VSS_Clear) for VSS_Clear
    r1_g4xx_pwm_curr_fdbk.o(i.LL_TIM_OC_EnablePreload) refers to r1_g4xx_pwm_curr_fdbk.o(.constdata) for .constdata
    r1_g4xx_pwm_curr_fdbk.o(i.R1_CalcDutyCycles) refers to r1_g4xx_pwm_curr_fdbk.o(.constdata) for .constdata
    r1_g4xx_pwm_curr_fdbk.o(i.R1_CurrentReadingPolarization) refers to r1_g4xx_pwm_curr_fdbk.o(i.R1_SwitchOnPWM) for R1_SwitchOnPWM
    r1_g4xx_pwm_curr_fdbk.o(i.R1_CurrentReadingPolarization) refers to pwm_common.o(i.waitForPolarizationEnd) for waitForPolarizationEnd
    r1_g4xx_pwm_curr_fdbk.o(i.R1_CurrentReadingPolarization) refers to r1_g4xx_pwm_curr_fdbk.o(i.R1_SwitchOffPWM) for R1_SwitchOffPWM
    r1_g4xx_pwm_curr_fdbk.o(i.R1_CurrentReadingPolarization) refers to r1_g4xx_pwm_curr_fdbk.o(i.R1_1ShuntMotorVarsInit) for R1_1ShuntMotorVarsInit
    r1_g4xx_pwm_curr_fdbk.o(i.R1_CurrentReadingPolarization) refers to r1_g4xx_pwm_curr_fdbk.o(i.R1_HFCurrentsPolarization) for R1_HFCurrentsPolarization
    r1_g4xx_pwm_curr_fdbk.o(i.R1_CurrentReadingPolarization) refers to r1_g4xx_pwm_curr_fdbk.o(i.R1_SetADCSampPointPolarization) for R1_SetADCSampPointPolarization
    r1_g4xx_pwm_curr_fdbk.o(i.R1_CurrentReadingPolarization) refers to r1_g4xx_pwm_curr_fdbk.o(i.R1_GetPhaseCurrents) for R1_GetPhaseCurrents
    r1_g4xx_pwm_curr_fdbk.o(i.R1_CurrentReadingPolarization) refers to r1_g4xx_pwm_curr_fdbk.o(i.R1_CalcDutyCycles) for R1_CalcDutyCycles
    r1_g4xx_pwm_curr_fdbk.o(i.R1_GetPhaseCurrents) refers to r1_g4xx_pwm_curr_fdbk.o(i.LL_TIM_OC_EnablePreload) for LL_TIM_OC_EnablePreload
    r1_g4xx_pwm_curr_fdbk.o(i.R1_Init) refers to r1_g4xx_pwm_curr_fdbk.o(i.R1_1ShuntMotorVarsInit) for R1_1ShuntMotorVarsInit
    r1_g4xx_pwm_curr_fdbk.o(i.R1_Init) refers to r1_g4xx_pwm_curr_fdbk.o(i.R1_TIMxInit) for R1_TIMxInit
    r1_g4xx_pwm_curr_fdbk.o(i.R1_Init) refers to r1_g4xx_pwm_curr_fdbk.o(i.R1_SetAOReferenceVoltage) for R1_SetAOReferenceVoltage
    r1_g4xx_pwm_curr_fdbk.o(i.R1_Init) refers to r1_g4xx_pwm_curr_fdbk.o(.constdata) for .constdata
    r1_g4xx_pwm_curr_fdbk.o(i.R1_Init) refers to system_stm32g4xx.o(.data) for SystemCoreClock
    r1_g4xx_pwm_curr_fdbk.o(i.R1_SetAOReferenceVoltage) refers to system_stm32g4xx.o(.data) for SystemCoreClock
    r1_g4xx_pwm_curr_fdbk.o(i.R1_SwitchOnPWM) refers to r1_g4xx_pwm_curr_fdbk.o(i.LL_TIM_OC_EnablePreload) for LL_TIM_OC_EnablePreload
    r1_g4xx_pwm_curr_fdbk.o(i.R1_TIMxInit) refers to r1_g4xx_pwm_curr_fdbk.o(i.LL_TIM_OC_EnablePreload) for LL_TIM_OC_EnablePreload
    r1_g4xx_pwm_curr_fdbk.o(i.R1_TIMx_UP_IRQHandler) refers to r1_g4xx_pwm_curr_fdbk.o(.constdata) for .constdata
    frame_communication_protocol.o(i.FCP_IsFrameValid) refers to frame_communication_protocol.o(i.FCP_CalcCRC) for FCP_CalcCRC
    ui_irq_handler.o(i.UIIRQ_ExecIrqHandler) refers to ui_irq_handler.o(.data) for .data
    ui_irq_handler.o(i.UIIRQ_SetIrqHandler) refers to ui_irq_handler.o(.data) for .data
    usart_frame_communication_protocol.o(i.UFCP_Init) refers to frame_communication_protocol.o(i.FCP_Init) for FCP_Init
    usart_frame_communication_protocol.o(i.UFCP_OVR_IRQ_Handler) refers to usart_frame_communication_protocol.o(i.UFCP_Send) for UFCP_Send
    usart_frame_communication_protocol.o(i.UFCP_RX_IRQ_Handler) refers to frame_communication_protocol.o(i.FCP_CalcCRC) for FCP_CalcCRC
    usart_frame_communication_protocol.o(i.UFCP_RX_IRQ_Handler) refers to usart_frame_communication_protocol.o(i.UFCP_Send) for UFCP_Send
    usart_frame_communication_protocol.o(i.UFCP_RX_IRQ_Handler) refers to usart_frame_communication_protocol.o(.constdata) for .constdata
    usart_frame_communication_protocol.o(i.UFCP_Send) refers to frame_communication_protocol.o(i.FCP_CalcCRC) for FCP_CalcCRC
    usart_frame_communication_protocol.o(i.UFCP_TIMEOUT_IRQ_Handler) refers to usart_frame_communication_protocol.o(i.UFCP_Send) for UFCP_Send
    revup_ctrl.o(.text) refers to virtual_speed_sensor.o(i.VSS_Clear) for VSS_Clear
    revup_ctrl.o(.text) refers to speed_torq_ctrl.o(i.STC_SetControlMode) for STC_SetControlMode
    revup_ctrl.o(.text) refers to virtual_speed_sensor.o(i.VSS_SetMecAngle) for VSS_SetMecAngle
    revup_ctrl.o(.text) refers to speed_torq_ctrl.o(i.STC_ExecRamp) for STC_ExecRamp
    revup_ctrl.o(.text) refers to virtual_speed_sensor.o(i.VSS_SetMecAcceleration) for VSS_SetMecAcceleration
    revup_ctrl.o(.text) refers to speed_pos_fdbk.o(i.SPD_GetAvrgMecSpeedUnit) for SPD_GetAvrgMecSpeedUnit
    revup_ctrl.o(.text) refers to virtual_speed_sensor.o(i.VSS_SetCopyObserver) for VSS_SetCopyObserver
    revup_ctrl.o(.text) refers to pwm_curr_fdbk.o(i.PWMC_SwitchOffPWM) for PWMC_SwitchOffPWM
    revup_ctrl.o(.text) refers to pwm_curr_fdbk.o(i.PWMC_TurnOnLowSides) for PWMC_TurnOnLowSides
    revup_ctrl.o(.text) refers to pwm_curr_fdbk.o(i.PWMC_SwitchOnPWM) for PWMC_SwitchOnPWM
    sto_pll_speed_pos_fdbk.o(.ccmram) refers to mc_math.o(i.MCM_Trig_Functions) for MCM_Trig_Functions
    sto_pll_speed_pos_fdbk.o(.ccmram) refers to pid_regulator.o(i.PI_Controller) for PI_Controller
    sto_pll_speed_pos_fdbk.o(.ccmram) refers to pid_regulator.o(i.PID_SetIntegralTerm) for PID_SetIntegralTerm
    sto_pll_speed_pos_fdbk.o(.text) refers to pid_regulator.o(i.PID_SetIntegralTerm) for PID_SetIntegralTerm
    sto_pll_speed_pos_fdbk.o(.text) refers to pid_regulator.o(i.PID_HandleInit) for PID_HandleInit
    sto_pll_speed_pos_fdbk.o(.text) refers to speed_pos_fdbk.o(i.SPD_IsMecSpeedReliable) for SPD_IsMecSpeedReliable
    sto_pll_speed_pos_fdbk.o(.text) refers to pid_regulator.o(i.PID_GetKP) for PID_GetKP
    sto_pll_speed_pos_fdbk.o(.text) refers to pid_regulator.o(i.PID_GetKI) for PID_GetKI
    sto_pll_speed_pos_fdbk.o(.text) refers to pid_regulator.o(i.PID_SetKP) for PID_SetKP
    sto_pll_speed_pos_fdbk.o(.text) refers to pid_regulator.o(i.PID_SetKI) for PID_SetKI
    sto_pll_speed_pos_fdbk.o(.text) refers to pid_regulator.o(i.PID_GetKIDivisor) for PID_GetKIDivisor
    entry.o(.ARM.Collect$$$$00000000) refers (Special) to entry10a.o(.ARM.Collect$$$$0000000D) for __rt_final_cpp
    entry.o(.ARM.Collect$$$$00000000) refers (Special) to entry11a.o(.ARM.Collect$$$$0000000F) for __rt_final_exit
    entry.o(.ARM.Collect$$$$00000000) refers (Special) to entry7b.o(.ARM.Collect$$$$00000008) for _main_clock
    entry.o(.ARM.Collect$$$$00000000) refers (Special) to entry8b.o(.ARM.Collect$$$$0000000A) for _main_cpp_init
    entry.o(.ARM.Collect$$$$00000000) refers (Special) to entry9a.o(.ARM.Collect$$$$0000000B) for _main_init
    entry.o(.ARM.Collect$$$$00000000) refers (Special) to entry5.o(.ARM.Collect$$$$00000004) for _main_scatterload
    entry.o(.ARM.Collect$$$$00000000) refers (Special) to entry2.o(.ARM.Collect$$$$00000001) for _main_stk
    uldiv.o(.text) refers to llushr.o(.text) for __aeabi_llsr
    uldiv.o(.text) refers to llshl.o(.text) for __aeabi_llsl
    entry2.o(.ARM.Collect$$$$00000001) refers to entry2.o(.ARM.Collect$$$$00002712) for __lit__00000000
    entry2.o(.ARM.Collect$$$$00002712) refers to startup_stm32g431xx.o(STACK) for __initial_sp
    entry2.o(__vectab_stack_and_reset_area) refers to startup_stm32g431xx.o(STACK) for __initial_sp
    entry2.o(__vectab_stack_and_reset_area) refers to entry.o(.ARM.Collect$$$$00000000) for __main
    entry5.o(.ARM.Collect$$$$00000004) refers to init.o(.text) for __scatterload
    entry9a.o(.ARM.Collect$$$$0000000B) refers to main.o(i.main) for main
    entry9b.o(.ARM.Collect$$$$0000000C) refers to main.o(i.main) for main
    init.o(.text) refers to entry5.o(.ARM.Collect$$$$00000004) for __main_after_scatterload


==============================================================================

Removing Unused input sections from the image.

    Removing startup_stm32g431xx.o(HEAP), (512 bytes).
    Removing main.o(.rev16_text), (4 bytes).
    Removing main.o(.revsh_text), (4 bytes).
    Removing main.o(.rrx_text), (6 bytes).
    Removing main.o(i.SystemClock_Config), (142 bytes).
    Removing motorcontrol.o(.rev16_text), (4 bytes).
    Removing motorcontrol.o(.revsh_text), (4 bytes).
    Removing motorcontrol.o(.rrx_text), (6 bytes).
    Removing mc_api.o(.rev16_text), (4 bytes).
    Removing mc_api.o(.revsh_text), (4 bytes).
    Removing mc_api.o(.rrx_text), (6 bytes).
    Removing mc_api.o(i.MC_AcknowledgeFaultMotor1), (12 bytes).
    Removing mc_api.o(i.MC_Clear_IqdrefMotor1), (12 bytes).
    Removing mc_api.o(i.MC_GetCommandStateMotor1), (12 bytes).
    Removing mc_api.o(i.MC_GetControlModeMotor1), (12 bytes).
    Removing mc_api.o(i.MC_GetCurrentFaultsMotor1), (12 bytes).
    Removing mc_api.o(i.MC_GetElAngledppMotor1), (12 bytes).
    Removing mc_api.o(i.MC_GetIabMotor1), (12 bytes).
    Removing mc_api.o(i.MC_GetIalphabetaMotor1), (12 bytes).
    Removing mc_api.o(i.MC_GetImposedDirectionMotor1), (12 bytes).
    Removing mc_api.o(i.MC_GetIqdMotor1), (12 bytes).
    Removing mc_api.o(i.MC_GetIqdrefMotor1), (12 bytes).
    Removing mc_api.o(i.MC_GetLastRampFinalSpeedMotor1), (12 bytes).
    Removing mc_api.o(i.MC_GetMecSpeedAverageMotor1), (12 bytes).
    Removing mc_api.o(i.MC_GetMecSpeedReferenceMotor1), (12 bytes).
    Removing mc_api.o(i.MC_GetOccurredFaultsMotor1), (12 bytes).
    Removing mc_api.o(i.MC_GetPhaseCurrentAmplitudeMotor1), (12 bytes).
    Removing mc_api.o(i.MC_GetPhaseVoltageAmplitudeMotor1), (12 bytes).
    Removing mc_api.o(i.MC_GetSpeedSensorReliabilityMotor1), (12 bytes).
    Removing mc_api.o(i.MC_GetTerefMotor1), (12 bytes).
    Removing mc_api.o(i.MC_GetValphabetaMotor1), (12 bytes).
    Removing mc_api.o(i.MC_GetVqdMotor1), (12 bytes).
    Removing mc_api.o(i.MC_HasRampCompletedMotor1), (12 bytes).
    Removing mc_api.o(i.MC_ProgramSpeedRampMotor1), (20 bytes).
    Removing mc_api.o(i.MC_ProgramTorqueRampMotor1), (20 bytes).
    Removing mc_api.o(i.MC_SetCurrentReferenceMotor1), (16 bytes).
    Removing mc_api.o(i.MC_SetIdrefMotor1), (16 bytes).
    Removing mc_api.o(i.MC_StopRampMotor1), (12 bytes).
    Removing mc_api.o(i.MC_StopSpeedRampMotor1), (12 bytes).
    Removing motor_control_protocol.o(.rev16_text), (4 bytes).
    Removing motor_control_protocol.o(.revsh_text), (4 bytes).
    Removing motor_control_protocol.o(.rrx_text), (6 bytes).
    Removing motor_control_protocol.o(i.MCP_SendATRMessage), (178 bytes).
    Removing motor_control_protocol.o(i.MCP_SendBadCRCMessage), (24 bytes).
    Removing motor_control_protocol.o(i.MCP_SendOverrunMessage), (24 bytes).
    Removing motor_control_protocol.o(i.MCP_SendTimeoutMessage), (24 bytes).
    Removing mc_config.o(.rev16_text), (4 bytes).
    Removing mc_config.o(.revsh_text), (4 bytes).
    Removing mc_config.o(.rrx_text), (6 bytes).
    Removing mc_config.o(.data), (4 bytes).
    Removing mc_config.o(.data), (4 bytes).
    Removing mc_tasks.o(.rev16_text), (4 bytes).
    Removing mc_tasks.o(.revsh_text), (4 bytes).
    Removing mc_tasks.o(.rrx_text), (6 bytes).
    Removing mc_tasks.o(i.GetMCI), (20 bytes).
    Removing mc_tasks.o(i.GetMCT), (16 bytes).
    Removing mc_tasks.o(.data), (4 bytes).
    Removing mc_tasks.o(.data), (4 bytes).
    Removing regular_conversion_manager.o(.rev16_text), (4 bytes).
    Removing regular_conversion_manager.o(.revsh_text), (4 bytes).
    Removing regular_conversion_manager.o(.rrx_text), (6 bytes).
    Removing regular_conversion_manager.o(i.RCM_GetUserConv), (28 bytes).
    Removing regular_conversion_manager.o(i.RCM_GetUserConvState), (12 bytes).
    Removing regular_conversion_manager.o(i.RCM_PauseRegularConv), (76 bytes).
    Removing regular_conversion_manager.o(i.RCM_RegisterRegConv_WithCB), (36 bytes).
    Removing regular_conversion_manager.o(i.RCM_RequestUserConv), (28 bytes).
    Removing mc_math.o(.rev16_text), (4 bytes).
    Removing mc_math.o(.revsh_text), (4 bytes).
    Removing mc_math.o(.rrx_text), (6 bytes).
    Removing mc_math.o(i.MCM_Sqrt), (52 bytes).
    Removing mc_math.o(i.MCM_floatToIntBit), (6 bytes).
    Removing mc_interface.o(.rev16_text), (4 bytes).
    Removing mc_interface.o(.revsh_text), (4 bytes).
    Removing mc_interface.o(.rrx_text), (6 bytes).
    Removing mc_interface.o(i.MCI_GetCurrentFaults), (12 bytes).
    Removing mc_interface.o(i.MCI_GetElAngledpp), (8 bytes).
    Removing mc_interface.o(i.MCI_GetIqdHF), (6 bytes).
    Removing mc_interface.o(i.MCI_GetOccurredFaults), (12 bytes).
    Removing mc_interface.o(i.MCI_GetPhaseCurrentAmplitude), (36 bytes).
    Removing mc_interface.o(i.MCI_GetPhaseVoltageAmplitude), (38 bytes).
    Removing mc_interface.o(i.MCI_GetSpdSensorReliability), (16 bytes).
    Removing mc_interface.o(i.MCI_IsCommandAcknowledged), (40 bytes).
    Removing mc_interface.o(i.MCI_RampCompleted), (28 bytes).
    Removing mc_interface.o(i.MCI_StopSpeedRamp), (6 bytes).
    Removing stm32g4xx_mc_it.o(.rev16_text), (4 bytes).
    Removing stm32g4xx_mc_it.o(.revsh_text), (4 bytes).
    Removing stm32g4xx_mc_it.o(.rrx_text), (6 bytes).
    Removing mc_parameters.o(.rev16_text), (4 bytes).
    Removing mc_parameters.o(.revsh_text), (4 bytes).
    Removing mc_parameters.o(.rrx_text), (6 bytes).
    Removing ui_task.o(.rev16_text), (4 bytes).
    Removing ui_task.o(.revsh_text), (4 bytes).
    Removing ui_task.o(.rrx_text), (6 bytes).
    Removing ui_task.o(i.GetMCP), (12 bytes).
    Removing ui_task.o(i.UI_IdleTimeHasElapsed), (20 bytes).
    Removing ui_task.o(i.UI_SerialCommunicationATRTimeHasElapsed), (24 bytes).
    Removing ui_task.o(i.UI_SerialCommunicationTimeOutHasElapsed), (24 bytes).
    Removing ui_task.o(i.UI_SetIdleTime), (12 bytes).
    Removing user_interface.o(.rev16_text), (4 bytes).
    Removing user_interface.o(.revsh_text), (4 bytes).
    Removing user_interface.o(.rrx_text), (6 bytes).
    Removing user_interface.o(i.UI_GetSelectedMCConfig), (10 bytes).
    Removing stm32g4xx_it.o(.rev16_text), (4 bytes).
    Removing stm32g4xx_it.o(.revsh_text), (4 bytes).
    Removing stm32g4xx_it.o(.rrx_text), (6 bytes).
    Removing stm32g4xx_hal_msp.o(.rev16_text), (4 bytes).
    Removing stm32g4xx_hal_msp.o(.revsh_text), (4 bytes).
    Removing stm32g4xx_hal_msp.o(.rrx_text), (6 bytes).
    Removing stm32g4xx_hal_msp.o(i.HAL_ADC_MspDeInit), (60 bytes).
    Removing stm32g4xx_hal_msp.o(i.HAL_CORDIC_MspDeInit), (32 bytes).
    Removing stm32g4xx_hal_msp.o(i.HAL_TIM_Base_MspDeInit), (80 bytes).
    Removing stm32g4xx_hal_msp.o(i.HAL_UART_MspDeInit), (52 bytes).
    Removing stm32g4xx_hal_gpio.o(.rev16_text), (4 bytes).
    Removing stm32g4xx_hal_gpio.o(.revsh_text), (4 bytes).
    Removing stm32g4xx_hal_gpio.o(.rrx_text), (6 bytes).
    Removing stm32g4xx_hal_gpio.o(i.HAL_GPIO_DeInit), (336 bytes).
    Removing stm32g4xx_hal_gpio.o(i.HAL_GPIO_EXTI_Callback), (2 bytes).
    Removing stm32g4xx_hal_gpio.o(i.HAL_GPIO_EXTI_IRQHandler), (24 bytes).
    Removing stm32g4xx_hal_gpio.o(i.HAL_GPIO_LockPin), (36 bytes).
    Removing stm32g4xx_hal_gpio.o(i.HAL_GPIO_ReadPin), (10 bytes).
    Removing stm32g4xx_hal_gpio.o(i.HAL_GPIO_TogglePin), (12 bytes).
    Removing stm32g4xx_hal_adc.o(.rev16_text), (4 bytes).
    Removing stm32g4xx_hal_adc.o(.revsh_text), (4 bytes).
    Removing stm32g4xx_hal_adc.o(.rrx_text), (6 bytes).
    Removing stm32g4xx_hal_adc.o(i.ADC_ConversionStop), (244 bytes).
    Removing stm32g4xx_hal_adc.o(i.ADC_DMAConvCplt), (130 bytes).
    Removing stm32g4xx_hal_adc.o(i.ADC_DMAError), (26 bytes).
    Removing stm32g4xx_hal_adc.o(i.ADC_DMAHalfConvCplt), (10 bytes).
    Removing stm32g4xx_hal_adc.o(i.ADC_Disable), (116 bytes).
    Removing stm32g4xx_hal_adc.o(i.ADC_Enable), (124 bytes).
    Removing stm32g4xx_hal_adc.o(i.HAL_ADC_AnalogWDGConfig), (780 bytes).
    Removing stm32g4xx_hal_adc.o(i.HAL_ADC_ConvCpltCallback), (2 bytes).
    Removing stm32g4xx_hal_adc.o(i.HAL_ADC_ConvHalfCpltCallback), (2 bytes).
    Removing stm32g4xx_hal_adc.o(i.HAL_ADC_DeInit), (380 bytes).
    Removing stm32g4xx_hal_adc.o(i.HAL_ADC_ErrorCallback), (2 bytes).
    Removing stm32g4xx_hal_adc.o(i.HAL_ADC_GetError), (4 bytes).
    Removing stm32g4xx_hal_adc.o(i.HAL_ADC_GetState), (4 bytes).
    Removing stm32g4xx_hal_adc.o(i.HAL_ADC_GetValue), (6 bytes).
    Removing stm32g4xx_hal_adc.o(i.HAL_ADC_IRQHandler), (684 bytes).
    Removing stm32g4xx_hal_adc.o(i.HAL_ADC_LevelOutOfWindowCallback), (2 bytes).
    Removing stm32g4xx_hal_adc.o(i.HAL_ADC_MspDeInit), (2 bytes).
    Removing stm32g4xx_hal_adc.o(i.HAL_ADC_MspInit), (2 bytes).
    Removing stm32g4xx_hal_adc.o(i.HAL_ADC_PollForConversion), (284 bytes).
    Removing stm32g4xx_hal_adc.o(i.HAL_ADC_PollForEvent), (236 bytes).
    Removing stm32g4xx_hal_adc.o(i.HAL_ADC_Start), (268 bytes).
    Removing stm32g4xx_hal_adc.o(i.HAL_ADC_StartSampling), (14 bytes).
    Removing stm32g4xx_hal_adc.o(i.HAL_ADC_Start_DMA), (264 bytes).
    Removing stm32g4xx_hal_adc.o(i.HAL_ADC_Start_IT), (396 bytes).
    Removing stm32g4xx_hal_adc.o(i.HAL_ADC_Stop), (60 bytes).
    Removing stm32g4xx_hal_adc.o(i.HAL_ADC_StopSampling), (14 bytes).
    Removing stm32g4xx_hal_adc.o(i.HAL_ADC_Stop_DMA), (120 bytes).
    Removing stm32g4xx_hal_adc.o(i.HAL_ADC_Stop_IT), (70 bytes).
    Removing stm32g4xx_hal_adc_ex.o(.rev16_text), (4 bytes).
    Removing stm32g4xx_hal_adc_ex.o(.revsh_text), (4 bytes).
    Removing stm32g4xx_hal_adc_ex.o(.rrx_text), (6 bytes).
    Removing stm32g4xx_hal_adc_ex.o(i.HAL_ADCEx_Calibration_GetValue), (22 bytes).
    Removing stm32g4xx_hal_adc_ex.o(i.HAL_ADCEx_Calibration_SetValue), (128 bytes).
    Removing stm32g4xx_hal_adc_ex.o(i.HAL_ADCEx_Calibration_Start), (144 bytes).
    Removing stm32g4xx_hal_adc_ex.o(i.HAL_ADCEx_DisableInjectedQueue), (42 bytes).
    Removing stm32g4xx_hal_adc_ex.o(i.HAL_ADCEx_DisableVoltageRegulator), (30 bytes).
    Removing stm32g4xx_hal_adc_ex.o(i.HAL_ADCEx_EnableInjectedQueue), (42 bytes).
    Removing stm32g4xx_hal_adc_ex.o(i.HAL_ADCEx_EndOfSamplingCallback), (2 bytes).
    Removing stm32g4xx_hal_adc_ex.o(i.HAL_ADCEx_EnterADCDeepPowerDownMode), (34 bytes).
    Removing stm32g4xx_hal_adc_ex.o(i.HAL_ADCEx_InjectedConvCpltCallback), (2 bytes).
    Removing stm32g4xx_hal_adc_ex.o(i.HAL_ADCEx_InjectedGetValue), (44 bytes).
    Removing stm32g4xx_hal_adc_ex.o(i.HAL_ADCEx_InjectedPollForConversion), (264 bytes).
    Removing stm32g4xx_hal_adc_ex.o(i.HAL_ADCEx_InjectedQueueOverflowCallback), (2 bytes).
    Removing stm32g4xx_hal_adc_ex.o(i.HAL_ADCEx_InjectedStart), (248 bytes).
    Removing stm32g4xx_hal_adc_ex.o(i.HAL_ADCEx_InjectedStart_IT), (308 bytes).
    Removing stm32g4xx_hal_adc_ex.o(i.HAL_ADCEx_InjectedStop), (78 bytes).
    Removing stm32g4xx_hal_adc_ex.o(i.HAL_ADCEx_InjectedStop_IT), (88 bytes).
    Removing stm32g4xx_hal_adc_ex.o(i.HAL_ADCEx_LevelOutOfWindow2Callback), (2 bytes).
    Removing stm32g4xx_hal_adc_ex.o(i.HAL_ADCEx_LevelOutOfWindow3Callback), (2 bytes).
    Removing stm32g4xx_hal_adc_ex.o(i.HAL_ADCEx_MultiModeGetValue), (12 bytes).
    Removing stm32g4xx_hal_adc_ex.o(i.HAL_ADCEx_MultiModeStart_DMA), (208 bytes).
    Removing stm32g4xx_hal_adc_ex.o(i.HAL_ADCEx_MultiModeStop_DMA), (216 bytes).
    Removing stm32g4xx_hal_adc_ex.o(i.HAL_ADCEx_RegularMultiModeStop_DMA), (228 bytes).
    Removing stm32g4xx_hal_adc_ex.o(i.HAL_ADCEx_RegularStop), (86 bytes).
    Removing stm32g4xx_hal_adc_ex.o(i.HAL_ADCEx_RegularStop_DMA), (138 bytes).
    Removing stm32g4xx_hal_adc_ex.o(i.HAL_ADCEx_RegularStop_IT), (96 bytes).
    Removing stm32g4xx_hal.o(.rev16_text), (4 bytes).
    Removing stm32g4xx_hal.o(.revsh_text), (4 bytes).
    Removing stm32g4xx_hal.o(.rrx_text), (6 bytes).
    Removing stm32g4xx_hal.o(i.HAL_DBGMCU_DisableDBGSleepMode), (16 bytes).
    Removing stm32g4xx_hal.o(i.HAL_DBGMCU_DisableDBGStandbyMode), (16 bytes).
    Removing stm32g4xx_hal.o(i.HAL_DBGMCU_DisableDBGStopMode), (16 bytes).
    Removing stm32g4xx_hal.o(i.HAL_DBGMCU_EnableDBGSleepMode), (16 bytes).
    Removing stm32g4xx_hal.o(i.HAL_DBGMCU_EnableDBGStandbyMode), (16 bytes).
    Removing stm32g4xx_hal.o(i.HAL_DBGMCU_EnableDBGStopMode), (16 bytes).
    Removing stm32g4xx_hal.o(i.HAL_DeInit), (44 bytes).
    Removing stm32g4xx_hal.o(i.HAL_Delay), (40 bytes).
    Removing stm32g4xx_hal.o(i.HAL_GetDEVID), (16 bytes).
    Removing stm32g4xx_hal.o(i.HAL_GetHalVersion), (8 bytes).
    Removing stm32g4xx_hal.o(i.HAL_GetREVID), (12 bytes).
    Removing stm32g4xx_hal.o(i.HAL_GetTickFreq), (12 bytes).
    Removing stm32g4xx_hal.o(i.HAL_GetTickPrio), (12 bytes).
    Removing stm32g4xx_hal.o(i.HAL_MspDeInit), (2 bytes).
    Removing stm32g4xx_hal.o(i.HAL_MspInit), (2 bytes).
    Removing stm32g4xx_hal.o(i.HAL_ResumeTick), (14 bytes).
    Removing stm32g4xx_hal.o(i.HAL_SYSCFG_CCMSRAMErase), (24 bytes).
    Removing stm32g4xx_hal.o(i.HAL_SYSCFG_CCMSRAM_WriteProtectionEnable), (16 bytes).
    Removing stm32g4xx_hal.o(i.HAL_SYSCFG_DisableIOSwitchBooster), (16 bytes).
    Removing stm32g4xx_hal.o(i.HAL_SYSCFG_DisableIOSwitchVDD), (16 bytes).
    Removing stm32g4xx_hal.o(i.HAL_SYSCFG_DisableMemorySwappingBank), (16 bytes).
    Removing stm32g4xx_hal.o(i.HAL_SYSCFG_DisableVREFBUF), (16 bytes).
    Removing stm32g4xx_hal.o(i.HAL_SYSCFG_EnableIOSwitchBooster), (16 bytes).
    Removing stm32g4xx_hal.o(i.HAL_SYSCFG_EnableIOSwitchVDD), (16 bytes).
    Removing stm32g4xx_hal.o(i.HAL_SYSCFG_EnableMemorySwappingBank), (16 bytes).
    Removing stm32g4xx_hal.o(i.HAL_SYSCFG_EnableVREFBUF), (60 bytes).
    Removing stm32g4xx_hal.o(i.HAL_SYSCFG_VREFBUF_HighImpedanceConfig), (20 bytes).
    Removing stm32g4xx_hal.o(i.HAL_SYSCFG_VREFBUF_TrimmingConfig), (20 bytes).
    Removing stm32g4xx_hal.o(i.HAL_SYSCFG_VREFBUF_VoltageScalingConfig), (20 bytes).
    Removing stm32g4xx_hal.o(i.HAL_SetTickFreq), (36 bytes).
    Removing stm32g4xx_hal.o(i.HAL_SuspendTick), (14 bytes).
    Removing stm32g4xx_hal_rcc.o(.rev16_text), (4 bytes).
    Removing stm32g4xx_hal_rcc.o(.revsh_text), (4 bytes).
    Removing stm32g4xx_hal_rcc.o(.rrx_text), (6 bytes).
    Removing stm32g4xx_hal_rcc.o(i.HAL_RCC_CSSCallback), (2 bytes).
    Removing stm32g4xx_hal_rcc.o(i.HAL_RCC_DeInit), (212 bytes).
    Removing stm32g4xx_hal_rcc.o(i.HAL_RCC_DisableLSECSS), (20 bytes).
    Removing stm32g4xx_hal_rcc.o(i.HAL_RCC_EnableLSECSS), (20 bytes).
    Removing stm32g4xx_hal_rcc.o(i.HAL_RCC_GetClockConfig), (64 bytes).
    Removing stm32g4xx_hal_rcc.o(i.HAL_RCC_GetOscConfig), (216 bytes).
    Removing stm32g4xx_hal_rcc.o(i.HAL_RCC_MCOConfig), (76 bytes).
    Removing stm32g4xx_hal_rcc.o(i.HAL_RCC_NMI_IRQHandler), (32 bytes).
    Removing stm32g4xx_hal_rcc_ex.o(.rev16_text), (4 bytes).
    Removing stm32g4xx_hal_rcc_ex.o(.revsh_text), (4 bytes).
    Removing stm32g4xx_hal_rcc_ex.o(.rrx_text), (6 bytes).
    Removing stm32g4xx_hal_rcc_ex.o(i.HAL_RCCEx_CRSConfig), (76 bytes).
    Removing stm32g4xx_hal_rcc_ex.o(i.HAL_RCCEx_CRSGetSynchronizationInfo), (36 bytes).
    Removing stm32g4xx_hal_rcc_ex.o(i.HAL_RCCEx_CRSSoftwareSynchronizationGenerate), (16 bytes).
    Removing stm32g4xx_hal_rcc_ex.o(i.HAL_RCCEx_CRSWaitSynchronization), (156 bytes).
    Removing stm32g4xx_hal_rcc_ex.o(i.HAL_RCCEx_CRS_ErrorCallback), (2 bytes).
    Removing stm32g4xx_hal_rcc_ex.o(i.HAL_RCCEx_CRS_ExpectedSyncCallback), (2 bytes).
    Removing stm32g4xx_hal_rcc_ex.o(i.HAL_RCCEx_CRS_IRQHandler), (128 bytes).
    Removing stm32g4xx_hal_rcc_ex.o(i.HAL_RCCEx_CRS_SyncOkCallback), (2 bytes).
    Removing stm32g4xx_hal_rcc_ex.o(i.HAL_RCCEx_CRS_SyncWarnCallback), (2 bytes).
    Removing stm32g4xx_hal_rcc_ex.o(i.HAL_RCCEx_DisableLSCO), (96 bytes).
    Removing stm32g4xx_hal_rcc_ex.o(i.HAL_RCCEx_DisableLSECSS), (28 bytes).
    Removing stm32g4xx_hal_rcc_ex.o(i.HAL_RCCEx_EnableLSCO), (148 bytes).
    Removing stm32g4xx_hal_rcc_ex.o(i.HAL_RCCEx_EnableLSECSS), (20 bytes).
    Removing stm32g4xx_hal_rcc_ex.o(i.HAL_RCCEx_EnableLSECSS_IT), (56 bytes).
    Removing stm32g4xx_hal_rcc_ex.o(i.HAL_RCCEx_GetPeriphCLKConfig), (148 bytes).
    Removing stm32g4xx_hal_rcc_ex.o(i.HAL_RCCEx_GetPeriphCLKFreq), (1076 bytes).
    Removing stm32g4xx_hal_rcc_ex.o(i.HAL_RCCEx_LSECSS_Callback), (2 bytes).
    Removing stm32g4xx_hal_rcc_ex.o(i.HAL_RCCEx_LSECSS_IRQHandler), (32 bytes).
    Removing stm32g4xx_hal_flash.o(.rev16_text), (4 bytes).
    Removing stm32g4xx_hal_flash.o(.revsh_text), (4 bytes).
    Removing stm32g4xx_hal_flash.o(.rrx_text), (6 bytes).
    Removing stm32g4xx_hal_flash.o(i.FLASH_WaitForLastOperation), (104 bytes).
    Removing stm32g4xx_hal_flash.o(i.HAL_FLASH_EndOfOperationCallback), (2 bytes).
    Removing stm32g4xx_hal_flash.o(i.HAL_FLASH_GetError), (12 bytes).
    Removing stm32g4xx_hal_flash.o(i.HAL_FLASH_IRQHandler), (240 bytes).
    Removing stm32g4xx_hal_flash.o(i.HAL_FLASH_Lock), (28 bytes).
    Removing stm32g4xx_hal_flash.o(i.HAL_FLASH_OB_Launch), (24 bytes).
    Removing stm32g4xx_hal_flash.o(i.HAL_FLASH_OB_Lock), (28 bytes).
    Removing stm32g4xx_hal_flash.o(i.HAL_FLASH_OB_Unlock), (48 bytes).
    Removing stm32g4xx_hal_flash.o(i.HAL_FLASH_OperationErrorCallback), (2 bytes).
    Removing stm32g4xx_hal_flash.o(i.HAL_FLASH_Program), (208 bytes).
    Removing stm32g4xx_hal_flash.o(i.HAL_FLASH_Program_IT), (180 bytes).
    Removing stm32g4xx_hal_flash.o(i.HAL_FLASH_Unlock), (48 bytes).
    Removing stm32g4xx_hal_flash.o(.data), (32 bytes).
    Removing stm32g4xx_hal_flash_ex.o(.rev16_text), (4 bytes).
    Removing stm32g4xx_hal_flash_ex.o(.revsh_text), (4 bytes).
    Removing stm32g4xx_hal_flash_ex.o(.rrx_text), (6 bytes).
    Removing stm32g4xx_hal_flash_ex.o(i.FLASH_FlushCaches), (88 bytes).
    Removing stm32g4xx_hal_flash_ex.o(i.FLASH_PageErase), (40 bytes).
    Removing stm32g4xx_hal_flash_ex.o(i.HAL_FLASHEx_DisableDebugger), (16 bytes).
    Removing stm32g4xx_hal_flash_ex.o(i.HAL_FLASHEx_EnableDebugger), (16 bytes).
    Removing stm32g4xx_hal_flash_ex.o(i.HAL_FLASHEx_EnableSecMemProtection), (20 bytes).
    Removing stm32g4xx_hal_flash_ex.o(i.HAL_FLASHEx_Erase), (336 bytes).
    Removing stm32g4xx_hal_flash_ex.o(i.HAL_FLASHEx_Erase_IT), (188 bytes).
    Removing stm32g4xx_hal_flash_ex.o(i.HAL_FLASHEx_OBGetConfig), (184 bytes).
    Removing stm32g4xx_hal_flash_ex.o(i.HAL_FLASHEx_OBProgram), (732 bytes).
    Removing stm32g4xx_hal_flash_ramfunc.o(.rev16_text), (4 bytes).
    Removing stm32g4xx_hal_flash_ramfunc.o(.revsh_text), (4 bytes).
    Removing stm32g4xx_hal_flash_ramfunc.o(.rrx_text), (6 bytes).
    Removing stm32g4xx_hal_flash_ramfunc.o(i.HAL_FLASHEx_DisableRunPowerDown), (36 bytes).
    Removing stm32g4xx_hal_flash_ramfunc.o(i.HAL_FLASHEx_EnableRunPowerDown), (36 bytes).
    Removing stm32g4xx_hal_exti.o(.rev16_text), (4 bytes).
    Removing stm32g4xx_hal_exti.o(.revsh_text), (4 bytes).
    Removing stm32g4xx_hal_exti.o(.rrx_text), (6 bytes).
    Removing stm32g4xx_hal_exti.o(i.HAL_EXTI_ClearConfigLine), (168 bytes).
    Removing stm32g4xx_hal_exti.o(i.HAL_EXTI_ClearPending), (32 bytes).
    Removing stm32g4xx_hal_exti.o(i.HAL_EXTI_GenerateSWI), (32 bytes).
    Removing stm32g4xx_hal_exti.o(i.HAL_EXTI_GetConfigLine), (180 bytes).
    Removing stm32g4xx_hal_exti.o(i.HAL_EXTI_GetHandle), (12 bytes).
    Removing stm32g4xx_hal_exti.o(i.HAL_EXTI_GetPending), (36 bytes).
    Removing stm32g4xx_hal_exti.o(i.HAL_EXTI_IRQHandler), (48 bytes).
    Removing stm32g4xx_hal_exti.o(i.HAL_EXTI_RegisterCallback), (20 bytes).
    Removing stm32g4xx_hal_exti.o(i.HAL_EXTI_SetConfigLine), (224 bytes).
    Removing stm32g4xx_hal_dma.o(.rev16_text), (4 bytes).
    Removing stm32g4xx_hal_dma.o(.revsh_text), (4 bytes).
    Removing stm32g4xx_hal_dma.o(.rrx_text), (6 bytes).
    Removing stm32g4xx_hal_dma.o(i.HAL_DMA_Abort), (128 bytes).
    Removing stm32g4xx_hal_dma.o(i.HAL_DMA_Abort_IT), (146 bytes).
    Removing stm32g4xx_hal_dma.o(i.HAL_DMA_DeInit), (268 bytes).
    Removing stm32g4xx_hal_dma.o(i.HAL_DMA_GetError), (4 bytes).
    Removing stm32g4xx_hal_dma.o(i.HAL_DMA_GetState), (6 bytes).
    Removing stm32g4xx_hal_dma.o(i.HAL_DMA_IRQHandler), (222 bytes).
    Removing stm32g4xx_hal_dma.o(i.HAL_DMA_PollForTransfer), (306 bytes).
    Removing stm32g4xx_hal_dma.o(i.HAL_DMA_RegisterCallback), (78 bytes).
    Removing stm32g4xx_hal_dma.o(i.HAL_DMA_Start), (140 bytes).
    Removing stm32g4xx_hal_dma.o(i.HAL_DMA_Start_IT), (202 bytes).
    Removing stm32g4xx_hal_dma.o(i.HAL_DMA_UnRegisterCallback), (82 bytes).
    Removing stm32g4xx_hal_dma_ex.o(.rev16_text), (4 bytes).
    Removing stm32g4xx_hal_dma_ex.o(.revsh_text), (4 bytes).
    Removing stm32g4xx_hal_dma_ex.o(.rrx_text), (6 bytes).
    Removing stm32g4xx_hal_dma_ex.o(i.HAL_DMAEx_ConfigMuxRequestGenerator), (80 bytes).
    Removing stm32g4xx_hal_dma_ex.o(i.HAL_DMAEx_ConfigMuxSync), (88 bytes).
    Removing stm32g4xx_hal_dma_ex.o(i.HAL_DMAEx_DisableMuxRequestGenerator), (30 bytes).
    Removing stm32g4xx_hal_dma_ex.o(i.HAL_DMAEx_EnableMuxRequestGenerator), (30 bytes).
    Removing stm32g4xx_hal_dma_ex.o(i.HAL_DMAEx_MUX_IRQHandler), (106 bytes).
    Removing stm32g4xx_hal_pwr.o(.rev16_text), (4 bytes).
    Removing stm32g4xx_hal_pwr.o(.revsh_text), (4 bytes).
    Removing stm32g4xx_hal_pwr.o(.rrx_text), (6 bytes).
    Removing stm32g4xx_hal_pwr.o(i.HAL_PWR_ConfigPVD), (152 bytes).
    Removing stm32g4xx_hal_pwr.o(i.HAL_PWR_DeInit), (24 bytes).
    Removing stm32g4xx_hal_pwr.o(i.HAL_PWR_DisableBkUpAccess), (16 bytes).
    Removing stm32g4xx_hal_pwr.o(i.HAL_PWR_DisablePVD), (16 bytes).
    Removing stm32g4xx_hal_pwr.o(i.HAL_PWR_DisableSEVOnPend), (16 bytes).
    Removing stm32g4xx_hal_pwr.o(i.HAL_PWR_DisableSleepOnExit), (16 bytes).
    Removing stm32g4xx_hal_pwr.o(i.HAL_PWR_DisableWakeUpPin), (20 bytes).
    Removing stm32g4xx_hal_pwr.o(i.HAL_PWR_EnableBkUpAccess), (16 bytes).
    Removing stm32g4xx_hal_pwr.o(i.HAL_PWR_EnablePVD), (16 bytes).
    Removing stm32g4xx_hal_pwr.o(i.HAL_PWR_EnableSEVOnPend), (16 bytes).
    Removing stm32g4xx_hal_pwr.o(i.HAL_PWR_EnableSleepOnExit), (16 bytes).
    Removing stm32g4xx_hal_pwr.o(i.HAL_PWR_EnableWakeUpPin), (28 bytes).
    Removing stm32g4xx_hal_pwr.o(i.HAL_PWR_EnterSLEEPMode), (68 bytes).
    Removing stm32g4xx_hal_pwr.o(i.HAL_PWR_EnterSTANDBYMode), (36 bytes).
    Removing stm32g4xx_hal_pwr.o(i.HAL_PWR_EnterSTOPMode), (16 bytes).
    Removing stm32g4xx_hal_pwr.o(i.HAL_PWR_PVDCallback), (2 bytes).
    Removing stm32g4xx_hal_pwr_ex.o(.rev16_text), (4 bytes).
    Removing stm32g4xx_hal_pwr_ex.o(.revsh_text), (4 bytes).
    Removing stm32g4xx_hal_pwr_ex.o(.rrx_text), (6 bytes).
    Removing stm32g4xx_hal_pwr_ex.o(i.HAL_PWREx_ConfigPVM), (508 bytes).
    Removing stm32g4xx_hal_pwr_ex.o(i.HAL_PWREx_DisableBatteryCharging), (16 bytes).
    Removing stm32g4xx_hal_pwr_ex.o(i.HAL_PWREx_DisableGPIOPullDown), (112 bytes).
    Removing stm32g4xx_hal_pwr_ex.o(i.HAL_PWREx_DisableGPIOPullUp), (116 bytes).
    Removing stm32g4xx_hal_pwr_ex.o(i.HAL_PWREx_DisableInternalWakeUpLine), (16 bytes).
    Removing stm32g4xx_hal_pwr_ex.o(i.HAL_PWREx_DisableLowPowerRunMode), (64 bytes).
    Removing stm32g4xx_hal_pwr_ex.o(i.HAL_PWREx_DisablePVM1), (16 bytes).
    Removing stm32g4xx_hal_pwr_ex.o(i.HAL_PWREx_DisablePVM2), (16 bytes).
    Removing stm32g4xx_hal_pwr_ex.o(i.HAL_PWREx_DisablePVM3), (16 bytes).
    Removing stm32g4xx_hal_pwr_ex.o(i.HAL_PWREx_DisablePVM4), (16 bytes).
    Removing stm32g4xx_hal_pwr_ex.o(i.HAL_PWREx_DisablePullUpPullDownConfig), (16 bytes).
    Removing stm32g4xx_hal_pwr_ex.o(i.HAL_PWREx_DisableSRAM2ContentRetention), (16 bytes).
    Removing stm32g4xx_hal_pwr_ex.o(i.HAL_PWREx_DisableUSBDeadBatteryPD), (16 bytes).
    Removing stm32g4xx_hal_pwr_ex.o(i.HAL_PWREx_DisableUSBStandByModePD), (16 bytes).
    Removing stm32g4xx_hal_pwr_ex.o(i.HAL_PWREx_EnableBatteryCharging), (28 bytes).
    Removing stm32g4xx_hal_pwr_ex.o(i.HAL_PWREx_EnableGPIOPullDown), (172 bytes).
    Removing stm32g4xx_hal_pwr_ex.o(i.HAL_PWREx_EnableGPIOPullUp), (168 bytes).
    Removing stm32g4xx_hal_pwr_ex.o(i.HAL_PWREx_EnableInternalWakeUpLine), (16 bytes).
    Removing stm32g4xx_hal_pwr_ex.o(i.HAL_PWREx_EnableLowPowerRunMode), (16 bytes).
    Removing stm32g4xx_hal_pwr_ex.o(i.HAL_PWREx_EnablePVM1), (16 bytes).
    Removing stm32g4xx_hal_pwr_ex.o(i.HAL_PWREx_EnablePVM2), (16 bytes).
    Removing stm32g4xx_hal_pwr_ex.o(i.HAL_PWREx_EnablePVM3), (16 bytes).
    Removing stm32g4xx_hal_pwr_ex.o(i.HAL_PWREx_EnablePVM4), (16 bytes).
    Removing stm32g4xx_hal_pwr_ex.o(i.HAL_PWREx_EnablePullUpPullDownConfig), (16 bytes).
    Removing stm32g4xx_hal_pwr_ex.o(i.HAL_PWREx_EnableSRAM2ContentRetention), (16 bytes).
    Removing stm32g4xx_hal_pwr_ex.o(i.HAL_PWREx_EnableUSBDeadBatteryPD), (16 bytes).
    Removing stm32g4xx_hal_pwr_ex.o(i.HAL_PWREx_EnableUSBStandByModePD), (16 bytes).
    Removing stm32g4xx_hal_pwr_ex.o(i.HAL_PWREx_EnterSHUTDOWNMode), (36 bytes).
    Removing stm32g4xx_hal_pwr_ex.o(i.HAL_PWREx_EnterSTOP0Mode), (52 bytes).
    Removing stm32g4xx_hal_pwr_ex.o(i.HAL_PWREx_EnterSTOP1Mode), (56 bytes).
    Removing stm32g4xx_hal_pwr_ex.o(i.HAL_PWREx_GetVoltageRange), (40 bytes).
    Removing stm32g4xx_hal_pwr_ex.o(i.HAL_PWREx_PVD_PVM_IRQHandler), (100 bytes).
    Removing stm32g4xx_hal_pwr_ex.o(i.HAL_PWREx_PVM1Callback), (2 bytes).
    Removing stm32g4xx_hal_pwr_ex.o(i.HAL_PWREx_PVM2Callback), (2 bytes).
    Removing stm32g4xx_hal_pwr_ex.o(i.HAL_PWREx_PVM3Callback), (2 bytes).
    Removing stm32g4xx_hal_pwr_ex.o(i.HAL_PWREx_PVM4Callback), (2 bytes).
    Removing stm32g4xx_hal_cortex.o(.rev16_text), (4 bytes).
    Removing stm32g4xx_hal_cortex.o(.revsh_text), (4 bytes).
    Removing stm32g4xx_hal_cortex.o(.rrx_text), (6 bytes).
    Removing stm32g4xx_hal_cortex.o(i.HAL_MPU_ConfigRegion), (84 bytes).
    Removing stm32g4xx_hal_cortex.o(i.HAL_MPU_Disable), (16 bytes).
    Removing stm32g4xx_hal_cortex.o(i.HAL_MPU_Enable), (24 bytes).
    Removing stm32g4xx_hal_cortex.o(i.HAL_NVIC_ClearPendingIRQ), (30 bytes).
    Removing stm32g4xx_hal_cortex.o(i.HAL_NVIC_DisableIRQ), (38 bytes).
    Removing stm32g4xx_hal_cortex.o(i.HAL_NVIC_GetActive), (38 bytes).
    Removing stm32g4xx_hal_cortex.o(i.HAL_NVIC_GetPendingIRQ), (38 bytes).
    Removing stm32g4xx_hal_cortex.o(i.HAL_NVIC_GetPriority), (86 bytes).
    Removing stm32g4xx_hal_cortex.o(i.HAL_NVIC_GetPriorityGrouping), (16 bytes).
    Removing stm32g4xx_hal_cortex.o(i.HAL_NVIC_SetPendingIRQ), (30 bytes).
    Removing stm32g4xx_hal_cortex.o(i.HAL_NVIC_SystemReset), (36 bytes).
    Removing stm32g4xx_hal_cortex.o(i.HAL_SYSTICK_CLKSourceConfig), (22 bytes).
    Removing stm32g4xx_hal_cordic.o(.rev16_text), (4 bytes).
    Removing stm32g4xx_hal_cordic.o(.revsh_text), (4 bytes).
    Removing stm32g4xx_hal_cordic.o(.rrx_text), (6 bytes).
    Removing stm32g4xx_hal_cordic.o(i.CORDIC_DMAError), (24 bytes).
    Removing stm32g4xx_hal_cordic.o(i.CORDIC_DMAInCplt), (38 bytes).
    Removing stm32g4xx_hal_cordic.o(i.CORDIC_DMAOutCplt), (30 bytes).
    Removing stm32g4xx_hal_cordic.o(i.HAL_CORDIC_Calculate), (230 bytes).
    Removing stm32g4xx_hal_cordic.o(i.HAL_CORDIC_CalculateCpltCallback), (2 bytes).
    Removing stm32g4xx_hal_cordic.o(i.HAL_CORDIC_CalculateZO), (220 bytes).
    Removing stm32g4xx_hal_cordic.o(i.HAL_CORDIC_Calculate_DMA), (240 bytes).
    Removing stm32g4xx_hal_cordic.o(i.HAL_CORDIC_Calculate_IT), (134 bytes).
    Removing stm32g4xx_hal_cordic.o(i.HAL_CORDIC_Configure), (96 bytes).
    Removing stm32g4xx_hal_cordic.o(i.HAL_CORDIC_DeInit), (48 bytes).
    Removing stm32g4xx_hal_cordic.o(i.HAL_CORDIC_ErrorCallback), (2 bytes).
    Removing stm32g4xx_hal_cordic.o(i.HAL_CORDIC_GetError), (4 bytes).
    Removing stm32g4xx_hal_cordic.o(i.HAL_CORDIC_GetState), (6 bytes).
    Removing stm32g4xx_hal_cordic.o(i.HAL_CORDIC_IRQHandler), (130 bytes).
    Removing stm32g4xx_hal_cordic.o(i.HAL_CORDIC_MspDeInit), (2 bytes).
    Removing stm32g4xx_hal_cordic.o(i.HAL_CORDIC_MspInit), (2 bytes).
    Removing stm32g4xx_hal_tim.o(.rev16_text), (4 bytes).
    Removing stm32g4xx_hal_tim.o(.revsh_text), (4 bytes).
    Removing stm32g4xx_hal_tim.o(.rrx_text), (6 bytes).
    Removing stm32g4xx_hal_tim.o(i.HAL_TIM_Base_DeInit), (56 bytes).
    Removing stm32g4xx_hal_tim.o(i.HAL_TIM_Base_GetState), (6 bytes).
    Removing stm32g4xx_hal_tim.o(i.HAL_TIM_Base_MspDeInit), (2 bytes).
    Removing stm32g4xx_hal_tim.o(i.HAL_TIM_Base_MspInit), (2 bytes).
    Removing stm32g4xx_hal_tim.o(i.HAL_TIM_Base_Start), (52 bytes).
    Removing stm32g4xx_hal_tim.o(i.HAL_TIM_Base_Start_DMA), (132 bytes).
    Removing stm32g4xx_hal_tim.o(i.HAL_TIM_Base_Start_IT), (48 bytes).
    Removing stm32g4xx_hal_tim.o(i.HAL_TIM_Base_Stop), (44 bytes).
    Removing stm32g4xx_hal_tim.o(i.HAL_TIM_Base_Stop_DMA), (58 bytes).
    Removing stm32g4xx_hal_tim.o(i.HAL_TIM_Base_Stop_IT), (42 bytes).
    Removing stm32g4xx_hal_tim.o(i.HAL_TIM_ConfigClockSource), (452 bytes).
    Removing stm32g4xx_hal_tim.o(i.HAL_TIM_ConfigOCrefClear), (532 bytes).
    Removing stm32g4xx_hal_tim.o(i.HAL_TIM_ConfigTI1Input), (16 bytes).
    Removing stm32g4xx_hal_tim.o(i.HAL_TIM_DMABurst_MultiReadStart), (416 bytes).
    Removing stm32g4xx_hal_tim.o(i.HAL_TIM_DMABurst_MultiWriteStart), (416 bytes).
    Removing stm32g4xx_hal_tim.o(i.HAL_TIM_DMABurst_ReadStart), (26 bytes).
    Removing stm32g4xx_hal_tim.o(i.HAL_TIM_DMABurst_ReadStop), (108 bytes).
    Removing stm32g4xx_hal_tim.o(i.HAL_TIM_DMABurst_WriteStart), (26 bytes).
    Removing stm32g4xx_hal_tim.o(i.HAL_TIM_DMABurst_WriteStop), (108 bytes).
    Removing stm32g4xx_hal_tim.o(i.HAL_TIM_Encoder_DeInit), (56 bytes).
    Removing stm32g4xx_hal_tim.o(i.HAL_TIM_Encoder_GetState), (6 bytes).
    Removing stm32g4xx_hal_tim.o(i.HAL_TIM_Encoder_Init), (176 bytes).
    Removing stm32g4xx_hal_tim.o(i.HAL_TIM_Encoder_MspDeInit), (2 bytes).
    Removing stm32g4xx_hal_tim.o(i.HAL_TIM_Encoder_MspInit), (2 bytes).
    Removing stm32g4xx_hal_tim.o(i.HAL_TIM_Encoder_Start), (88 bytes).
    Removing stm32g4xx_hal_tim.o(i.HAL_TIM_Encoder_Start_DMA), (368 bytes).
    Removing stm32g4xx_hal_tim.o(i.HAL_TIM_Encoder_Start_IT), (128 bytes).
    Removing stm32g4xx_hal_tim.o(i.HAL_TIM_Encoder_Stop), (92 bytes).
    Removing stm32g4xx_hal_tim.o(i.HAL_TIM_Encoder_Stop_DMA), (164 bytes).
    Removing stm32g4xx_hal_tim.o(i.HAL_TIM_Encoder_Stop_IT), (142 bytes).
    Removing stm32g4xx_hal_tim.o(i.HAL_TIM_ErrorCallback), (2 bytes).
    Removing stm32g4xx_hal_tim.o(i.HAL_TIM_GenerateEvent), (38 bytes).
    Removing stm32g4xx_hal_tim.o(i.HAL_TIM_IC_CaptureCallback), (2 bytes).
    Removing stm32g4xx_hal_tim.o(i.HAL_TIM_IC_CaptureHalfCpltCallback), (2 bytes).
    Removing stm32g4xx_hal_tim.o(i.HAL_TIM_IC_ConfigChannel), (436 bytes).
    Removing stm32g4xx_hal_tim.o(i.HAL_TIM_IC_DeInit), (56 bytes).
    Removing stm32g4xx_hal_tim.o(i.HAL_TIM_IC_GetState), (6 bytes).
    Removing stm32g4xx_hal_tim.o(i.HAL_TIM_IC_Init), (54 bytes).
    Removing stm32g4xx_hal_tim.o(i.HAL_TIM_IC_MspDeInit), (2 bytes).
    Removing stm32g4xx_hal_tim.o(i.HAL_TIM_IC_MspInit), (2 bytes).
    Removing stm32g4xx_hal_tim.o(i.HAL_TIM_IC_Start), (60 bytes).
    Removing stm32g4xx_hal_tim.o(i.HAL_TIM_IC_Start_DMA), (288 bytes).
    Removing stm32g4xx_hal_tim.o(i.HAL_TIM_IC_Start_IT), (112 bytes).
    Removing stm32g4xx_hal_tim.o(i.HAL_TIM_IC_Stop), (76 bytes).
    Removing stm32g4xx_hal_tim.o(i.HAL_TIM_IC_Stop_DMA), (146 bytes).
    Removing stm32g4xx_hal_tim.o(i.HAL_TIM_IC_Stop_IT), (128 bytes).
    Removing stm32g4xx_hal_tim.o(i.HAL_TIM_IRQHandler), (514 bytes).
    Removing stm32g4xx_hal_tim.o(i.HAL_TIM_OC_ConfigChannel), (720 bytes).
    Removing stm32g4xx_hal_tim.o(i.HAL_TIM_OC_DeInit), (56 bytes).
    Removing stm32g4xx_hal_tim.o(i.HAL_TIM_OC_DelayElapsedCallback), (2 bytes).
    Removing stm32g4xx_hal_tim.o(i.HAL_TIM_OC_GetState), (6 bytes).
    Removing stm32g4xx_hal_tim.o(i.HAL_TIM_OC_Init), (54 bytes).
    Removing stm32g4xx_hal_tim.o(i.HAL_TIM_OC_MspDeInit), (2 bytes).
    Removing stm32g4xx_hal_tim.o(i.HAL_TIM_OC_MspInit), (2 bytes).
    Removing stm32g4xx_hal_tim.o(i.HAL_TIM_OC_Start), (116 bytes).
    Removing stm32g4xx_hal_tim.o(i.HAL_TIM_OC_Start_DMA), (356 bytes).
    Removing stm32g4xx_hal_tim.o(i.HAL_TIM_OC_Start_IT), (168 bytes).
    Removing stm32g4xx_hal_tim.o(i.HAL_TIM_OC_Stop), (158 bytes).
    Removing stm32g4xx_hal_tim.o(i.HAL_TIM_OC_Stop_DMA), (232 bytes).
    Removing stm32g4xx_hal_tim.o(i.HAL_TIM_OC_Stop_IT), (210 bytes).
    Removing stm32g4xx_hal_tim.o(i.HAL_TIM_OnePulse_ConfigChannel), (580 bytes).
    Removing stm32g4xx_hal_tim.o(i.HAL_TIM_OnePulse_DeInit), (56 bytes).
    Removing stm32g4xx_hal_tim.o(i.HAL_TIM_OnePulse_GetState), (6 bytes).
    Removing stm32g4xx_hal_tim.o(i.HAL_TIM_OnePulse_Init), (74 bytes).
    Removing stm32g4xx_hal_tim.o(i.HAL_TIM_OnePulse_MspDeInit), (2 bytes).
    Removing stm32g4xx_hal_tim.o(i.HAL_TIM_OnePulse_MspInit), (2 bytes).
    Removing stm32g4xx_hal_tim.o(i.HAL_TIM_OnePulse_Start), (98 bytes).
    Removing stm32g4xx_hal_tim.o(i.HAL_TIM_OnePulse_Start_IT), (118 bytes).
    Removing stm32g4xx_hal_tim.o(i.HAL_TIM_OnePulse_Stop), (142 bytes).
    Removing stm32g4xx_hal_tim.o(i.HAL_TIM_OnePulse_Stop_IT), (162 bytes).
    Removing stm32g4xx_hal_tim.o(i.HAL_TIM_PWM_DeInit), (56 bytes).
    Removing stm32g4xx_hal_tim.o(i.HAL_TIM_PWM_GetState), (6 bytes).
    Removing stm32g4xx_hal_tim.o(i.HAL_TIM_PWM_MspDeInit), (2 bytes).
    Removing stm32g4xx_hal_tim.o(i.HAL_TIM_PWM_PulseFinishedCallback), (2 bytes).
    Removing stm32g4xx_hal_tim.o(i.HAL_TIM_PWM_PulseFinishedHalfCpltCallback), (2 bytes).
    Removing stm32g4xx_hal_tim.o(i.HAL_TIM_PWM_Start), (116 bytes).
    Removing stm32g4xx_hal_tim.o(i.HAL_TIM_PWM_Start_DMA), (356 bytes).
    Removing stm32g4xx_hal_tim.o(i.HAL_TIM_PWM_Start_IT), (168 bytes).
    Removing stm32g4xx_hal_tim.o(i.HAL_TIM_PWM_Stop), (144 bytes).
    Removing stm32g4xx_hal_tim.o(i.HAL_TIM_PWM_Stop_DMA), (232 bytes).
    Removing stm32g4xx_hal_tim.o(i.HAL_TIM_PWM_Stop_IT), (210 bytes).
    Removing stm32g4xx_hal_tim.o(i.HAL_TIM_PeriodElapsedCallback), (2 bytes).
    Removing stm32g4xx_hal_tim.o(i.HAL_TIM_PeriodElapsedHalfCpltCallback), (2 bytes).
    Removing stm32g4xx_hal_tim.o(i.HAL_TIM_ReadCapturedValue), (44 bytes).
    Removing stm32g4xx_hal_tim.o(i.HAL_TIM_SlaveConfigSynchro_IT), (86 bytes).
    Removing stm32g4xx_hal_tim.o(i.HAL_TIM_TriggerCallback), (2 bytes).
    Removing stm32g4xx_hal_tim.o(i.HAL_TIM_TriggerHalfCpltCallback), (2 bytes).
    Removing stm32g4xx_hal_tim.o(i.TIM_CCxChannelCmd), (30 bytes).
    Removing stm32g4xx_hal_tim.o(i.TIM_DMACaptureCplt), (66 bytes).
    Removing stm32g4xx_hal_tim.o(i.TIM_DMACaptureHalfCplt), (66 bytes).
    Removing stm32g4xx_hal_tim.o(i.TIM_DMADelayPulseCplt), (66 bytes).
    Removing stm32g4xx_hal_tim.o(i.TIM_DMADelayPulseHalfCplt), (66 bytes).
    Removing stm32g4xx_hal_tim.o(i.TIM_DMAError), (16 bytes).
    Removing stm32g4xx_hal_tim.o(i.TIM_DMAPeriodElapsedCplt), (16 bytes).
    Removing stm32g4xx_hal_tim.o(i.TIM_DMAPeriodElapsedHalfCplt), (16 bytes).
    Removing stm32g4xx_hal_tim.o(i.TIM_DMATriggerCplt), (16 bytes).
    Removing stm32g4xx_hal_tim.o(i.TIM_DMATriggerHalfCplt), (16 bytes).
    Removing stm32g4xx_hal_tim.o(i.TIM_ETR_SetConfig), (22 bytes).
    Removing stm32g4xx_hal_tim.o(i.TIM_TI1_SetConfig), (120 bytes).
    Removing stm32g4xx_hal_tim_ex.o(.rev16_text), (4 bytes).
    Removing stm32g4xx_hal_tim_ex.o(.revsh_text), (4 bytes).
    Removing stm32g4xx_hal_tim_ex.o(.rrx_text), (6 bytes).
    Removing stm32g4xx_hal_tim_ex.o(i.HAL_TIMEx_Break2Callback), (2 bytes).
    Removing stm32g4xx_hal_tim_ex.o(i.HAL_TIMEx_BreakCallback), (2 bytes).
    Removing stm32g4xx_hal_tim_ex.o(i.HAL_TIMEx_CommutCallback), (2 bytes).
    Removing stm32g4xx_hal_tim_ex.o(i.HAL_TIMEx_CommutHalfCpltCallback), (2 bytes).
    Removing stm32g4xx_hal_tim_ex.o(i.HAL_TIMEx_ConfigAsymmetricalDeadTime), (16 bytes).
    Removing stm32g4xx_hal_tim_ex.o(i.HAL_TIMEx_ConfigCommutEvent), (174 bytes).
    Removing stm32g4xx_hal_tim_ex.o(i.HAL_TIMEx_ConfigCommutEvent_DMA), (204 bytes).
    Removing stm32g4xx_hal_tim_ex.o(i.HAL_TIMEx_ConfigCommutEvent_IT), (174 bytes).
    Removing stm32g4xx_hal_tim_ex.o(i.HAL_TIMEx_ConfigDeadTime), (16 bytes).
    Removing stm32g4xx_hal_tim_ex.o(i.HAL_TIMEx_ConfigEncoderIndex), (78 bytes).
    Removing stm32g4xx_hal_tim_ex.o(i.HAL_TIMEx_ConfigSlaveModePreload), (16 bytes).
    Removing stm32g4xx_hal_tim_ex.o(i.HAL_TIMEx_DirectionChangeCallback), (2 bytes).
    Removing stm32g4xx_hal_tim_ex.o(i.HAL_TIMEx_DisableAsymmetricalDeadTime), (14 bytes).
    Removing stm32g4xx_hal_tim_ex.o(i.HAL_TIMEx_DisableDeadTimePreload), (14 bytes).
    Removing stm32g4xx_hal_tim_ex.o(i.HAL_TIMEx_DisableEncoderFirstIndex), (14 bytes).
    Removing stm32g4xx_hal_tim_ex.o(i.HAL_TIMEx_DisableEncoderIndex), (14 bytes).
    Removing stm32g4xx_hal_tim_ex.o(i.HAL_TIMEx_DisableSlaveModePreload), (14 bytes).
    Removing stm32g4xx_hal_tim_ex.o(i.HAL_TIMEx_DisarmBreakInput), (72 bytes).
    Removing stm32g4xx_hal_tim_ex.o(i.HAL_TIMEx_DitheringDisable), (14 bytes).
    Removing stm32g4xx_hal_tim_ex.o(i.HAL_TIMEx_DitheringEnable), (14 bytes).
    Removing stm32g4xx_hal_tim_ex.o(i.HAL_TIMEx_EnableAsymmetricalDeadTime), (14 bytes).
    Removing stm32g4xx_hal_tim_ex.o(i.HAL_TIMEx_EnableDeadTimePreload), (14 bytes).
    Removing stm32g4xx_hal_tim_ex.o(i.HAL_TIMEx_EnableEncoderFirstIndex), (14 bytes).
    Removing stm32g4xx_hal_tim_ex.o(i.HAL_TIMEx_EnableEncoderIndex), (14 bytes).
    Removing stm32g4xx_hal_tim_ex.o(i.HAL_TIMEx_EnableSlaveModePreload), (14 bytes).
    Removing stm32g4xx_hal_tim_ex.o(i.HAL_TIMEx_EncoderIndexCallback), (2 bytes).
    Removing stm32g4xx_hal_tim_ex.o(i.HAL_TIMEx_GroupChannel5), (64 bytes).
    Removing stm32g4xx_hal_tim_ex.o(i.HAL_TIMEx_HallSensor_DeInit), (56 bytes).
    Removing stm32g4xx_hal_tim_ex.o(i.HAL_TIMEx_HallSensor_GetState), (6 bytes).
    Removing stm32g4xx_hal_tim_ex.o(i.HAL_TIMEx_HallSensor_Init), (200 bytes).
    Removing stm32g4xx_hal_tim_ex.o(i.HAL_TIMEx_HallSensor_MspDeInit), (2 bytes).
    Removing stm32g4xx_hal_tim_ex.o(i.HAL_TIMEx_HallSensor_MspInit), (2 bytes).
    Removing stm32g4xx_hal_tim_ex.o(i.HAL_TIMEx_HallSensor_Start), (52 bytes).
    Removing stm32g4xx_hal_tim_ex.o(i.HAL_TIMEx_HallSensor_Start_DMA), (144 bytes).
    Removing stm32g4xx_hal_tim_ex.o(i.HAL_TIMEx_HallSensor_Start_IT), (60 bytes).
    Removing stm32g4xx_hal_tim_ex.o(i.HAL_TIMEx_HallSensor_Stop), (46 bytes).
    Removing stm32g4xx_hal_tim_ex.o(i.HAL_TIMEx_HallSensor_Stop_DMA), (62 bytes).
    Removing stm32g4xx_hal_tim_ex.o(i.HAL_TIMEx_HallSensor_Stop_IT), (56 bytes).
    Removing stm32g4xx_hal_tim_ex.o(i.HAL_TIMEx_IndexErrorCallback), (2 bytes).
    Removing stm32g4xx_hal_tim_ex.o(i.HAL_TIMEx_OCN_Start), (68 bytes).
    Removing stm32g4xx_hal_tim_ex.o(i.HAL_TIMEx_OCN_Start_DMA), (308 bytes).
    Removing stm32g4xx_hal_tim_ex.o(i.HAL_TIMEx_OCN_Start_IT), (132 bytes).
    Removing stm32g4xx_hal_tim_ex.o(i.HAL_TIMEx_OCN_Stop), (108 bytes).
    Removing stm32g4xx_hal_tim_ex.o(i.HAL_TIMEx_OCN_Stop_DMA), (170 bytes).
    Removing stm32g4xx_hal_tim_ex.o(i.HAL_TIMEx_OCN_Stop_IT), (184 bytes).
    Removing stm32g4xx_hal_tim_ex.o(i.HAL_TIMEx_OC_ConfigPulseOnCompare), (66 bytes).
    Removing stm32g4xx_hal_tim_ex.o(i.HAL_TIMEx_OnePulseN_Start), (36 bytes).
    Removing stm32g4xx_hal_tim_ex.o(i.HAL_TIMEx_OnePulseN_Start_IT), (56 bytes).
    Removing stm32g4xx_hal_tim_ex.o(i.HAL_TIMEx_OnePulseN_Stop), (108 bytes).
    Removing stm32g4xx_hal_tim_ex.o(i.HAL_TIMEx_OnePulseN_Stop_IT), (128 bytes).
    Removing stm32g4xx_hal_tim_ex.o(i.HAL_TIMEx_PWMN_Start), (68 bytes).
    Removing stm32g4xx_hal_tim_ex.o(i.HAL_TIMEx_PWMN_Start_DMA), (308 bytes).
    Removing stm32g4xx_hal_tim_ex.o(i.HAL_TIMEx_PWMN_Start_IT), (132 bytes).
    Removing stm32g4xx_hal_tim_ex.o(i.HAL_TIMEx_PWMN_Stop), (108 bytes).
    Removing stm32g4xx_hal_tim_ex.o(i.HAL_TIMEx_PWMN_Stop_DMA), (170 bytes).
    Removing stm32g4xx_hal_tim_ex.o(i.HAL_TIMEx_PWMN_Stop_IT), (184 bytes).
    Removing stm32g4xx_hal_tim_ex.o(i.HAL_TIMEx_ReArmBreakInput), (100 bytes).
    Removing stm32g4xx_hal_tim_ex.o(i.HAL_TIMEx_RemapConfig), (40 bytes).
    Removing stm32g4xx_hal_tim_ex.o(i.HAL_TIMEx_TISelection), (158 bytes).
    Removing stm32g4xx_hal_tim_ex.o(i.HAL_TIMEx_TransitionErrorCallback), (2 bytes).
    Removing stm32g4xx_hal_tim_ex.o(i.TIMEx_DMACommutationCplt), (16 bytes).
    Removing stm32g4xx_hal_tim_ex.o(i.TIMEx_DMACommutationHalfCplt), (16 bytes).
    Removing stm32g4xx_hal_uart.o(.rev16_text), (4 bytes).
    Removing stm32g4xx_hal_uart.o(.revsh_text), (4 bytes).
    Removing stm32g4xx_hal_uart.o(.rrx_text), (6 bytes).
    Removing stm32g4xx_hal_uart.o(i.HAL_HalfDuplex_EnableReceiver), (60 bytes).
    Removing stm32g4xx_hal_uart.o(i.HAL_HalfDuplex_EnableTransmitter), (60 bytes).
    Removing stm32g4xx_hal_uart.o(i.HAL_HalfDuplex_Init), (120 bytes).
    Removing stm32g4xx_hal_uart.o(i.HAL_LIN_Init), (150 bytes).
    Removing stm32g4xx_hal_uart.o(i.HAL_LIN_SendBreak), (50 bytes).
    Removing stm32g4xx_hal_uart.o(i.HAL_MultiProcessor_DisableMuteMode), (44 bytes).
    Removing stm32g4xx_hal_uart.o(i.HAL_MultiProcessor_EnableMuteMode), (44 bytes).
    Removing stm32g4xx_hal_uart.o(i.HAL_MultiProcessor_EnterMuteMode), (12 bytes).
    Removing stm32g4xx_hal_uart.o(i.HAL_MultiProcessor_Init), (142 bytes).
    Removing stm32g4xx_hal_uart.o(i.HAL_UART_Abort), (190 bytes).
    Removing stm32g4xx_hal_uart.o(i.HAL_UART_AbortCpltCallback), (2 bytes).
    Removing stm32g4xx_hal_uart.o(i.HAL_UART_AbortReceive), (114 bytes).
    Removing stm32g4xx_hal_uart.o(i.HAL_UART_AbortReceiveCpltCallback), (2 bytes).
    Removing stm32g4xx_hal_uart.o(i.HAL_UART_AbortReceive_IT), (144 bytes).
    Removing stm32g4xx_hal_uart.o(i.HAL_UART_AbortTransmit), (114 bytes).
    Removing stm32g4xx_hal_uart.o(i.HAL_UART_AbortTransmitCpltCallback), (2 bytes).
    Removing stm32g4xx_hal_uart.o(i.HAL_UART_AbortTransmit_IT), (124 bytes).
    Removing stm32g4xx_hal_uart.o(i.HAL_UART_Abort_IT), (228 bytes).
    Removing stm32g4xx_hal_uart.o(i.HAL_UART_DMAPause), (102 bytes).
    Removing stm32g4xx_hal_uart.o(i.HAL_UART_DMAResume), (90 bytes).
    Removing stm32g4xx_hal_uart.o(i.HAL_UART_DMAStop), (178 bytes).
    Removing stm32g4xx_hal_uart.o(i.HAL_UART_DeInit), (68 bytes).
    Removing stm32g4xx_hal_uart.o(i.HAL_UART_ErrorCallback), (2 bytes).
    Removing stm32g4xx_hal_uart.o(i.HAL_UART_GetError), (6 bytes).
    Removing stm32g4xx_hal_uart.o(i.HAL_UART_GetState), (12 bytes).
    Removing stm32g4xx_hal_uart.o(i.HAL_UART_IRQHandler), (528 bytes).
    Removing stm32g4xx_hal_uart.o(i.HAL_UART_MspDeInit), (2 bytes).
    Removing stm32g4xx_hal_uart.o(i.HAL_UART_MspInit), (2 bytes).
    Removing stm32g4xx_hal_uart.o(i.HAL_UART_Receive), (336 bytes).
    Removing stm32g4xx_hal_uart.o(i.HAL_UART_Receive_DMA), (176 bytes).
    Removing stm32g4xx_hal_uart.o(i.HAL_UART_Receive_IT), (280 bytes).
    Removing stm32g4xx_hal_uart.o(i.HAL_UART_RxCpltCallback), (2 bytes).
    Removing stm32g4xx_hal_uart.o(i.HAL_UART_RxHalfCpltCallback), (2 bytes).
    Removing stm32g4xx_hal_uart.o(i.HAL_UART_Transmit), (282 bytes).
    Removing stm32g4xx_hal_uart.o(i.HAL_UART_Transmit_DMA), (164 bytes).
    Removing stm32g4xx_hal_uart.o(i.HAL_UART_Transmit_IT), (156 bytes).
    Removing stm32g4xx_hal_uart.o(i.HAL_UART_TxCpltCallback), (2 bytes).
    Removing stm32g4xx_hal_uart.o(i.HAL_UART_TxHalfCpltCallback), (2 bytes).
    Removing stm32g4xx_hal_uart.o(i.UART_DMAAbortOnError), (20 bytes).
    Removing stm32g4xx_hal_uart.o(i.UART_DMAError), (136 bytes).
    Removing stm32g4xx_hal_uart.o(i.UART_DMAReceiveCplt), (64 bytes).
    Removing stm32g4xx_hal_uart.o(i.UART_DMARxAbortCallback), (70 bytes).
    Removing stm32g4xx_hal_uart.o(i.UART_DMARxHalfCplt), (10 bytes).
    Removing stm32g4xx_hal_uart.o(i.UART_DMARxOnlyAbortCallback), (38 bytes).
    Removing stm32g4xx_hal_uart.o(i.UART_DMATransmitCplt), (50 bytes).
    Removing stm32g4xx_hal_uart.o(i.UART_DMATxAbortCallback), (76 bytes).
    Removing stm32g4xx_hal_uart.o(i.UART_DMATxHalfCplt), (10 bytes).
    Removing stm32g4xx_hal_uart.o(i.UART_DMATxOnlyAbortCallback), (40 bytes).
    Removing stm32g4xx_hal_uart.o(i.UART_RxISR_16BIT), (96 bytes).
    Removing stm32g4xx_hal_uart.o(i.UART_RxISR_16BIT_FIFOEN), (176 bytes).
    Removing stm32g4xx_hal_uart.o(i.UART_RxISR_8BIT), (96 bytes).
    Removing stm32g4xx_hal_uart.o(i.UART_RxISR_8BIT_FIFOEN), (176 bytes).
    Removing stm32g4xx_hal_uart.o(i.UART_TxISR_16BIT), (68 bytes).
    Removing stm32g4xx_hal_uart.o(i.UART_TxISR_16BIT_FIFOEN), (94 bytes).
    Removing stm32g4xx_hal_uart.o(i.UART_TxISR_8BIT), (64 bytes).
    Removing stm32g4xx_hal_uart.o(i.UART_TxISR_8BIT_FIFOEN), (90 bytes).
    Removing stm32g4xx_hal_uart_ex.o(.rev16_text), (4 bytes).
    Removing stm32g4xx_hal_uart_ex.o(.revsh_text), (4 bytes).
    Removing stm32g4xx_hal_uart_ex.o(.rrx_text), (6 bytes).
    Removing stm32g4xx_hal_uart_ex.o(i.HAL_MultiProcessorEx_AddressLength_Set), (50 bytes).
    Removing stm32g4xx_hal_uart_ex.o(i.HAL_RS485Ex_Init), (140 bytes).
    Removing stm32g4xx_hal_uart_ex.o(i.HAL_UARTEx_DisableStopMode), (38 bytes).
    Removing stm32g4xx_hal_uart_ex.o(i.HAL_UARTEx_EnableStopMode), (38 bytes).
    Removing stm32g4xx_hal_uart_ex.o(i.HAL_UARTEx_RxFifoFullCallback), (2 bytes).
    Removing stm32g4xx_hal_uart_ex.o(i.HAL_UARTEx_StopModeWakeUpSourceConfig), (136 bytes).
    Removing stm32g4xx_hal_uart_ex.o(i.HAL_UARTEx_TxFifoEmptyCallback), (2 bytes).
    Removing stm32g4xx_hal_uart_ex.o(i.HAL_UARTEx_WakeupCallback), (2 bytes).
    Removing system_stm32g4xx.o(.rev16_text), (4 bytes).
    Removing system_stm32g4xx.o(.revsh_text), (4 bytes).
    Removing system_stm32g4xx.o(.rrx_text), (6 bytes).
    Removing system_stm32g4xx.o(i.SystemCoreClockUpdate), (136 bytes).
    Removing bus_voltage_sensor.o(.rev16_text), (4 bytes).
    Removing bus_voltage_sensor.o(.revsh_text), (4 bytes).
    Removing bus_voltage_sensor.o(.rrx_text), (6 bytes).
    Removing bus_voltage_sensor.o(i.VBS_CheckVbus), (4 bytes).
    Removing bus_voltage_sensor.o(i.VBS_GetBusVoltage_d), (4 bytes).
    Removing circle_limitation.o(.rev16_text), (4 bytes).
    Removing circle_limitation.o(.revsh_text), (4 bytes).
    Removing circle_limitation.o(.rrx_text), (6 bytes).
    Removing digital_output.o(.rev16_text), (4 bytes).
    Removing digital_output.o(.revsh_text), (4 bytes).
    Removing digital_output.o(.rrx_text), (6 bytes).
    Removing digital_output.o(i.DOUT_GetOutputState), (4 bytes).
    Removing digital_output.o(i.DOUT_SetOutputState), (36 bytes).
    Removing motor_power_measurement.o(.rev16_text), (4 bytes).
    Removing motor_power_measurement.o(.revsh_text), (4 bytes).
    Removing motor_power_measurement.o(.rrx_text), (6 bytes).
    Removing motor_power_measurement.o(i.MPM_GetElMotorPowerW), (10 bytes).
    Removing ntc_temperature_sensor.o(.rev16_text), (4 bytes).
    Removing ntc_temperature_sensor.o(.revsh_text), (4 bytes).
    Removing ntc_temperature_sensor.o(.rrx_text), (6 bytes).
    Removing ntc_temperature_sensor.o(i.NTC_CheckTemp), (4 bytes).
    Removing ntc_temperature_sensor.o(i.NTC_GetAvTemp_d), (4 bytes).
    Removing open_loop.o(.rev16_text), (4 bytes).
    Removing open_loop.o(.revsh_text), (4 bytes).
    Removing open_loop.o(.rrx_text), (6 bytes).
    Removing open_loop.o(i.OL_Calc), (40 bytes).
    Removing open_loop.o(i.OL_Init), (8 bytes).
    Removing open_loop.o(i.OL_UpdateVoltage), (4 bytes).
    Removing open_loop.o(i.OL_VF), (4 bytes).
    Removing open_loop.o(i.OL_VqdConditioning), (16 bytes).
    Removing pid_regulator.o(.rev16_text), (4 bytes).
    Removing pid_regulator.o(.revsh_text), (4 bytes).
    Removing pid_regulator.o(.rrx_text), (6 bytes).
    Removing pid_regulator.o(i.PID_Controller), (64 bytes).
    Removing pid_regulator.o(i.PID_GetDefaultKI), (6 bytes).
    Removing pid_regulator.o(i.PID_GetDefaultKP), (6 bytes).
    Removing pid_regulator.o(i.PID_GetKDDivisor), (4 bytes).
    Removing pid_regulator.o(i.PID_SetKDDivisorPOW2), (12 bytes).
    Removing pid_regulator.o(i.PID_SetKIDivisorPOW2), (36 bytes).
    Removing pid_regulator.o(i.PID_SetKPDivisorPOW2), (12 bytes).
    Removing pid_regulator.o(i.PID_SetLowerIntegralTermLimit), (4 bytes).
    Removing pid_regulator.o(i.PID_SetLowerOutputLimit), (4 bytes).
    Removing pid_regulator.o(i.PID_SetPrevError), (4 bytes).
    Removing pid_regulator.o(i.PID_SetUpperIntegralTermLimit), (4 bytes).
    Removing pid_regulator.o(i.PID_SetUpperOutputLimit), (4 bytes).
    Removing pqd_motor_power_measurement.o(.rev16_text), (4 bytes).
    Removing pqd_motor_power_measurement.o(.revsh_text), (4 bytes).
    Removing pqd_motor_power_measurement.o(.rrx_text), (6 bytes).
    Removing pwm_curr_fdbk.o(.rev16_text), (4 bytes).
    Removing pwm_curr_fdbk.o(.revsh_text), (4 bytes).
    Removing pwm_curr_fdbk.o(.rrx_text), (6 bytes).
    Removing pwm_curr_fdbk.o(i.PWMC_GetTurnOnLowSidesAction), (6 bytes).
    Removing pwm_curr_fdbk.o(i.PWMC_OCPSetReferenceVoltage), (10 bytes).
    Removing pwm_curr_fdbk.o(i.PWMC_RLDetectionModeDisable), (10 bytes).
    Removing pwm_curr_fdbk.o(i.PWMC_RLDetectionModeEnable), (10 bytes).
    Removing pwm_curr_fdbk.o(i.PWMC_RLDetectionModeSetDuty), (16 bytes).
    Removing pwm_curr_fdbk.o(i.PWMC_RegisterGetPhaseCurrentsCallBack), (4 bytes).
    Removing pwm_curr_fdbk.o(i.PWMC_RegisterIrqHandlerCallBack), (4 bytes).
    Removing pwm_curr_fdbk.o(i.PWMC_RegisterIsOverCurrentOccurredCallBack), (4 bytes).
    Removing pwm_curr_fdbk.o(i.PWMC_RegisterOCPSetRefVoltageCallBack), (4 bytes).
    Removing pwm_curr_fdbk.o(i.PWMC_RegisterRLDetectionModeDisableCallBack), (4 bytes).
    Removing pwm_curr_fdbk.o(i.PWMC_RegisterRLDetectionModeEnableCallBack), (4 bytes).
    Removing pwm_curr_fdbk.o(i.PWMC_RegisterRLDetectionModeSetDutyCallBack), (4 bytes).
    Removing pwm_curr_fdbk.o(i.PWMC_RegisterReadingCalibrationCallBack), (4 bytes).
    Removing pwm_curr_fdbk.o(i.PWMC_RegisterSampPointSectXCallBack), (4 bytes).
    Removing pwm_curr_fdbk.o(i.PWMC_RegisterSwitchOffPwmCallBack), (4 bytes).
    Removing pwm_curr_fdbk.o(i.PWMC_RegisterSwitchonPwmCallBack), (4 bytes).
    Removing pwm_curr_fdbk.o(i.PWMC_RegisterTurnOnLowSidesCallBack), (4 bytes).
    Removing pwm_common.o(.rev16_text), (4 bytes).
    Removing pwm_common.o(.revsh_text), (4 bytes).
    Removing pwm_common.o(.rrx_text), (6 bytes).
    Removing r_divider_bus_voltage_sensor.o(.rev16_text), (4 bytes).
    Removing r_divider_bus_voltage_sensor.o(.revsh_text), (4 bytes).
    Removing r_divider_bus_voltage_sensor.o(.rrx_text), (6 bytes).
    Removing r_divider_bus_voltage_sensor.o(i.RVBS_CalcAvVbusFilt), (168 bytes).
    Removing ramp_ext_mngr.o(.rev16_text), (4 bytes).
    Removing ramp_ext_mngr.o(.revsh_text), (4 bytes).
    Removing ramp_ext_mngr.o(.rrx_text), (6 bytes).
    Removing ramp_ext_mngr.o(i.REMNG_GetValue), (10 bytes).
    Removing ramp_ext_mngr.o(i.REMNG_StopRamp), (8 bytes).
    Removing speed_pos_fdbk.o(.rev16_text), (4 bytes).
    Removing speed_pos_fdbk.o(.revsh_text), (4 bytes).
    Removing speed_pos_fdbk.o(.rrx_text), (6 bytes).
    Removing speed_pos_fdbk.o(i.SPD_Check), (16 bytes).
    Removing speed_pos_fdbk.o(i.SPD_GetElSpeedDpp), (6 bytes).
    Removing speed_pos_fdbk.o(i.SPD_GetElToMecRatio), (4 bytes).
    Removing speed_pos_fdbk.o(i.SPD_GetMecAngle), (4 bytes).
    Removing speed_pos_fdbk.o(i.SPD_SetElToMecRatio), (4 bytes).
    Removing speed_torq_ctrl.o(.rev16_text), (4 bytes).
    Removing speed_torq_ctrl.o(.revsh_text), (4 bytes).
    Removing speed_torq_ctrl.o(.rrx_text), (6 bytes).
    Removing speed_torq_ctrl.o(i.STC_GetControlMode), (4 bytes).
    Removing speed_torq_ctrl.o(i.STC_RampCompleted), (14 bytes).
    Removing speed_torq_ctrl.o(i.STC_SetNominalCurrent), (8 bytes).
    Removing speed_torq_ctrl.o(i.STC_StopSpeedRamp), (16 bytes).
    Removing state_machine.o(.rev16_text), (4 bytes).
    Removing state_machine.o(.revsh_text), (4 bytes).
    Removing state_machine.o(.rrx_text), (6 bytes).
    Removing virtual_speed_sensor.o(.rev16_text), (4 bytes).
    Removing virtual_speed_sensor.o(.revsh_text), (4 bytes).
    Removing virtual_speed_sensor.o(.rrx_text), (6 bytes).
    Removing virtual_speed_sensor.o(i.VSS_GetLastRampFinalSpeed), (6 bytes).
    Removing virtual_speed_sensor.o(i.VSS_IsTransitionOngoing), (40 bytes).
    Removing virtual_speed_sensor.o(i.VSS_RampCompleted), (14 bytes).
    Removing virtual_speed_sensor.o(i.VSS_SetElAngle), (6 bytes).
    Removing r1_g4xx_pwm_curr_fdbk.o(.rev16_text), (4 bytes).
    Removing r1_g4xx_pwm_curr_fdbk.o(.revsh_text), (4 bytes).
    Removing r1_g4xx_pwm_curr_fdbk.o(.rrx_text), (6 bytes).
    Removing frame_communication_protocol.o(.rev16_text), (4 bytes).
    Removing frame_communication_protocol.o(.revsh_text), (4 bytes).
    Removing frame_communication_protocol.o(.rrx_text), (6 bytes).
    Removing frame_communication_protocol.o(i.FCP_IsFrameValid), (28 bytes).
    Removing frame_communication_protocol.o(i.FCP_SetTimeout), (8 bytes).
    Removing ui_irq_handler.o(.rev16_text), (4 bytes).
    Removing ui_irq_handler.o(.revsh_text), (4 bytes).
    Removing ui_irq_handler.o(.rrx_text), (6 bytes).
    Removing ui_irq_handler.o(i.UIIRQ_ExecIrqHandler), (24 bytes).
    Removing ui_irq_handler.o(i.UIIRQ_SetIrqHandler), (16 bytes).
    Removing ui_irq_handler.o(.data), (8 bytes).
    Removing usart_frame_communication_protocol.o(.rev16_text), (4 bytes).
    Removing usart_frame_communication_protocol.o(.revsh_text), (4 bytes).
    Removing usart_frame_communication_protocol.o(.rrx_text), (6 bytes).
    Removing usart_frame_communication_protocol.o(i.UFCP_TIMEOUT_IRQ_Handler), (20 bytes).
    Removing revup_ctrl.o(.rev16_text), (4 bytes).
    Removing revup_ctrl.o(.revsh_text), (4 bytes).
    Removing revup_ctrl.o(.rrx_text), (6 bytes).
    Removing sto_pll_speed_pos_fdbk.o(.rev16_text), (4 bytes).
    Removing sto_pll_speed_pos_fdbk.o(.revsh_text), (4 bytes).
    Removing sto_pll_speed_pos_fdbk.o(.rrx_text), (6 bytes).
    Removing mc_math.o(i.MCM_PhaseComputation), (32 bytes).

776 unused section(s) (total 44592 bytes) removed from the image.

==============================================================================

Image Symbol Table

    Local Symbols

    Symbol Name                              Value     Ov Type        Size  Object(Section)

    ../Drivers/STM32G4xx_HAL_Driver/Src/stm32g4xx_hal.c 0x00000000   Number         0  stm32g4xx_hal.o ABSOLUTE
    ../Drivers/STM32G4xx_HAL_Driver/Src/stm32g4xx_hal_adc.c 0x00000000   Number         0  stm32g4xx_hal_adc.o ABSOLUTE
    ../Drivers/STM32G4xx_HAL_Driver/Src/stm32g4xx_hal_adc_ex.c 0x00000000   Number         0  stm32g4xx_hal_adc_ex.o ABSOLUTE
    ../Drivers/STM32G4xx_HAL_Driver/Src/stm32g4xx_hal_cordic.c 0x00000000   Number         0  stm32g4xx_hal_cordic.o ABSOLUTE
    ../Drivers/STM32G4xx_HAL_Driver/Src/stm32g4xx_hal_cortex.c 0x00000000   Number         0  stm32g4xx_hal_cortex.o ABSOLUTE
    ../Drivers/STM32G4xx_HAL_Driver/Src/stm32g4xx_hal_dma.c 0x00000000   Number         0  stm32g4xx_hal_dma.o ABSOLUTE
    ../Drivers/STM32G4xx_HAL_Driver/Src/stm32g4xx_hal_dma_ex.c 0x00000000   Number         0  stm32g4xx_hal_dma_ex.o ABSOLUTE
    ../Drivers/STM32G4xx_HAL_Driver/Src/stm32g4xx_hal_exti.c 0x00000000   Number         0  stm32g4xx_hal_exti.o ABSOLUTE
    ../Drivers/STM32G4xx_HAL_Driver/Src/stm32g4xx_hal_flash.c 0x00000000   Number         0  stm32g4xx_hal_flash.o ABSOLUTE
    ../Drivers/STM32G4xx_HAL_Driver/Src/stm32g4xx_hal_flash_ex.c 0x00000000   Number         0  stm32g4xx_hal_flash_ex.o ABSOLUTE
    ../Drivers/STM32G4xx_HAL_Driver/Src/stm32g4xx_hal_flash_ramfunc.c 0x00000000   Number         0  stm32g4xx_hal_flash_ramfunc.o ABSOLUTE
    ../Drivers/STM32G4xx_HAL_Driver/Src/stm32g4xx_hal_gpio.c 0x00000000   Number         0  stm32g4xx_hal_gpio.o ABSOLUTE
    ../Drivers/STM32G4xx_HAL_Driver/Src/stm32g4xx_hal_pwr.c 0x00000000   Number         0  stm32g4xx_hal_pwr.o ABSOLUTE
    ../Drivers/STM32G4xx_HAL_Driver/Src/stm32g4xx_hal_pwr_ex.c 0x00000000   Number         0  stm32g4xx_hal_pwr_ex.o ABSOLUTE
    ../Drivers/STM32G4xx_HAL_Driver/Src/stm32g4xx_hal_rcc.c 0x00000000   Number         0  stm32g4xx_hal_rcc.o ABSOLUTE
    ../Drivers/STM32G4xx_HAL_Driver/Src/stm32g4xx_hal_rcc_ex.c 0x00000000   Number         0  stm32g4xx_hal_rcc_ex.o ABSOLUTE
    ../Drivers/STM32G4xx_HAL_Driver/Src/stm32g4xx_hal_tim.c 0x00000000   Number         0  stm32g4xx_hal_tim.o ABSOLUTE
    ../Drivers/STM32G4xx_HAL_Driver/Src/stm32g4xx_hal_tim_ex.c 0x00000000   Number         0  stm32g4xx_hal_tim_ex.o ABSOLUTE
    ../Drivers/STM32G4xx_HAL_Driver/Src/stm32g4xx_hal_uart.c 0x00000000   Number         0  stm32g4xx_hal_uart.o ABSOLUTE
    ../Drivers/STM32G4xx_HAL_Driver/Src/stm32g4xx_hal_uart_ex.c 0x00000000   Number         0  stm32g4xx_hal_uart_ex.o ABSOLUTE
    ../Drivers/STM32G4xx_HAL_Driver/Src/stm32g4xx_ll_adc.c 0x00000000   Number         0  stm32g4xx_ll_adc.o ABSOLUTE
    ../Drivers/STM32G4xx_HAL_Driver/Src/stm32g4xx_ll_pwr.c 0x00000000   Number         0  stm32g4xx_ll_pwr.o ABSOLUTE
    ../MCSDK_v5.4.4/MotorControl/MCSDK/MCLib/Any/Src/bus_voltage_sensor.c 0x00000000   Number         0  bus_voltage_sensor.o ABSOLUTE
    ../MCSDK_v5.4.4/MotorControl/MCSDK/MCLib/Any/Src/circle_limitation.c 0x00000000   Number         0  circle_limitation.o ABSOLUTE
    ../MCSDK_v5.4.4/MotorControl/MCSDK/MCLib/Any/Src/digital_output.c 0x00000000   Number         0  digital_output.o ABSOLUTE
    ../MCSDK_v5.4.4/MotorControl/MCSDK/MCLib/Any/Src/motor_power_measurement.c 0x00000000   Number         0  motor_power_measurement.o ABSOLUTE
    ../MCSDK_v5.4.4/MotorControl/MCSDK/MCLib/Any/Src/ntc_temperature_sensor.c 0x00000000   Number         0  ntc_temperature_sensor.o ABSOLUTE
    ../MCSDK_v5.4.4/MotorControl/MCSDK/MCLib/Any/Src/open_loop.c 0x00000000   Number         0  open_loop.o ABSOLUTE
    ../MCSDK_v5.4.4/MotorControl/MCSDK/MCLib/Any/Src/pid_regulator.c 0x00000000   Number         0  pid_regulator.o ABSOLUTE
    ../MCSDK_v5.4.4/MotorControl/MCSDK/MCLib/Any/Src/pqd_motor_power_measurement.c 0x00000000   Number         0  pqd_motor_power_measurement.o ABSOLUTE
    ../MCSDK_v5.4.4/MotorControl/MCSDK/MCLib/Any/Src/pwm_common.c 0x00000000   Number         0  pwm_common.o ABSOLUTE
    ../MCSDK_v5.4.4/MotorControl/MCSDK/MCLib/Any/Src/pwm_curr_fdbk.c 0x00000000   Number         0  pwm_curr_fdbk.o ABSOLUTE
    ../MCSDK_v5.4.4/MotorControl/MCSDK/MCLib/Any/Src/r_divider_bus_voltage_sensor.c 0x00000000   Number         0  r_divider_bus_voltage_sensor.o ABSOLUTE
    ../MCSDK_v5.4.4/MotorControl/MCSDK/MCLib/Any/Src/ramp_ext_mngr.c 0x00000000   Number         0  ramp_ext_mngr.o ABSOLUTE
    ../MCSDK_v5.4.4/MotorControl/MCSDK/MCLib/Any/Src/speed_pos_fdbk.c 0x00000000   Number         0  speed_pos_fdbk.o ABSOLUTE
    ../MCSDK_v5.4.4/MotorControl/MCSDK/MCLib/Any/Src/speed_torq_ctrl.c 0x00000000   Number         0  speed_torq_ctrl.o ABSOLUTE
    ../MCSDK_v5.4.4/MotorControl/MCSDK/MCLib/Any/Src/state_machine.c 0x00000000   Number         0  state_machine.o ABSOLUTE
    ../MCSDK_v5.4.4/MotorControl/MCSDK/MCLib/Any/Src/virtual_speed_sensor.c 0x00000000   Number         0  virtual_speed_sensor.o ABSOLUTE
    ../MCSDK_v5.4.4/MotorControl/MCSDK/MCLib/G4xx/Src/r1_g4xx_pwm_curr_fdbk.c 0x00000000   Number         0  r1_g4xx_pwm_curr_fdbk.o ABSOLUTE
    ../MCSDK_v5.4.4/MotorControl/MCSDK/UILibrary/Src/frame_communication_protocol.c 0x00000000   Number         0  frame_communication_protocol.o ABSOLUTE
    ../MCSDK_v5.4.4/MotorControl/MCSDK/UILibrary/Src/ui_irq_handler.c 0x00000000   Number         0  ui_irq_handler.o ABSOLUTE
    ../MCSDK_v5.4.4/MotorControl/MCSDK/UILibrary/Src/usart_frame_communication_protocol.c 0x00000000   Number         0  usart_frame_communication_protocol.o ABSOLUTE
    ../Src/main.c                            0x00000000   Number         0  main.o ABSOLUTE
    ../Src/mc_api.c                          0x00000000   Number         0  mc_api.o ABSOLUTE
    ../Src/mc_config.c                       0x00000000   Number         0  mc_config.o ABSOLUTE
    ../Src/mc_interface.c                    0x00000000   Number         0  mc_interface.o ABSOLUTE
    ../Src/mc_math.c                         0x00000000   Number         0  mc_math.o ABSOLUTE
    ../Src/mc_parameters.c                   0x00000000   Number         0  mc_parameters.o ABSOLUTE
    ../Src/mc_tasks.c                        0x00000000   Number         0  mc_tasks.o ABSOLUTE
    ../Src/motor_control_protocol.c          0x00000000   Number         0  motor_control_protocol.o ABSOLUTE
    ../Src/motorcontrol.c                    0x00000000   Number         0  motorcontrol.o ABSOLUTE
    ../Src/regular_conversion_manager.c      0x00000000   Number         0  regular_conversion_manager.o ABSOLUTE
    ../Src/stm32g4xx_hal_msp.c               0x00000000   Number         0  stm32g4xx_hal_msp.o ABSOLUTE
    ../Src/stm32g4xx_it.c                    0x00000000   Number         0  stm32g4xx_it.o ABSOLUTE
    ../Src/stm32g4xx_mc_it.c                 0x00000000   Number         0  stm32g4xx_mc_it.o ABSOLUTE
    ../Src/system_stm32g4xx.c                0x00000000   Number         0  system_stm32g4xx.o ABSOLUTE
    ../Src/ui_task.c                         0x00000000   Number         0  ui_task.o ABSOLUTE
    ../Src/user_interface.c                  0x00000000   Number         0  user_interface.o ABSOLUTE
    ../clib/../cmprslib/zerorunl2.c          0x00000000   Number         0  __dczerorl2.o ABSOLUTE
    ../clib/microlib/division.c              0x00000000   Number         0  uldiv.o ABSOLUTE
    ../clib/microlib/init/entry.s            0x00000000   Number         0  entry.o ABSOLUTE
    ../clib/microlib/init/entry.s            0x00000000   Number         0  entry2.o ABSOLUTE
    ../clib/microlib/init/entry.s            0x00000000   Number         0  entry5.o ABSOLUTE
    ../clib/microlib/init/entry.s            0x00000000   Number         0  entry7a.o ABSOLUTE
    ../clib/microlib/init/entry.s            0x00000000   Number         0  entry7b.o ABSOLUTE
    ../clib/microlib/init/entry.s            0x00000000   Number         0  entry8a.o ABSOLUTE
    ../clib/microlib/init/entry.s            0x00000000   Number         0  entry8b.o ABSOLUTE
    ../clib/microlib/init/entry.s            0x00000000   Number         0  entry9a.o ABSOLUTE
    ../clib/microlib/init/entry.s            0x00000000   Number         0  entry9b.o ABSOLUTE
    ../clib/microlib/init/entry.s            0x00000000   Number         0  entry10a.o ABSOLUTE
    ../clib/microlib/init/entry.s            0x00000000   Number         0  entry10b.o ABSOLUTE
    ../clib/microlib/init/entry.s            0x00000000   Number         0  entry11a.o ABSOLUTE
    ../clib/microlib/init/entry.s            0x00000000   Number         0  entry11b.o ABSOLUTE
    ../clib/microlib/longlong.c              0x00000000   Number         0  llushr.o ABSOLUTE
    ../clib/microlib/longlong.c              0x00000000   Number         0  llshl.o ABSOLUTE
    ../clib/microlib/string/memset.c         0x00000000   Number         0  memseta.o ABSOLUTE
    ..\Drivers\STM32G4xx_HAL_Driver\Src\stm32g4xx_hal.c 0x00000000   Number         0  stm32g4xx_hal.o ABSOLUTE
    ..\Drivers\STM32G4xx_HAL_Driver\Src\stm32g4xx_hal_adc.c 0x00000000   Number         0  stm32g4xx_hal_adc.o ABSOLUTE
    ..\Drivers\STM32G4xx_HAL_Driver\Src\stm32g4xx_hal_adc_ex.c 0x00000000   Number         0  stm32g4xx_hal_adc_ex.o ABSOLUTE
    ..\Drivers\STM32G4xx_HAL_Driver\Src\stm32g4xx_hal_cordic.c 0x00000000   Number         0  stm32g4xx_hal_cordic.o ABSOLUTE
    ..\Drivers\STM32G4xx_HAL_Driver\Src\stm32g4xx_hal_cortex.c 0x00000000   Number         0  stm32g4xx_hal_cortex.o ABSOLUTE
    ..\Drivers\STM32G4xx_HAL_Driver\Src\stm32g4xx_hal_dma.c 0x00000000   Number         0  stm32g4xx_hal_dma.o ABSOLUTE
    ..\Drivers\STM32G4xx_HAL_Driver\Src\stm32g4xx_hal_dma_ex.c 0x00000000   Number         0  stm32g4xx_hal_dma_ex.o ABSOLUTE
    ..\Drivers\STM32G4xx_HAL_Driver\Src\stm32g4xx_hal_exti.c 0x00000000   Number         0  stm32g4xx_hal_exti.o ABSOLUTE
    ..\Drivers\STM32G4xx_HAL_Driver\Src\stm32g4xx_hal_flash.c 0x00000000   Number         0  stm32g4xx_hal_flash.o ABSOLUTE
    ..\Drivers\STM32G4xx_HAL_Driver\Src\stm32g4xx_hal_flash_ex.c 0x00000000   Number         0  stm32g4xx_hal_flash_ex.o ABSOLUTE
    ..\Drivers\STM32G4xx_HAL_Driver\Src\stm32g4xx_hal_flash_ramfunc.c 0x00000000   Number         0  stm32g4xx_hal_flash_ramfunc.o ABSOLUTE
    ..\Drivers\STM32G4xx_HAL_Driver\Src\stm32g4xx_hal_gpio.c 0x00000000   Number         0  stm32g4xx_hal_gpio.o ABSOLUTE
    ..\Drivers\STM32G4xx_HAL_Driver\Src\stm32g4xx_hal_pwr.c 0x00000000   Number         0  stm32g4xx_hal_pwr.o ABSOLUTE
    ..\Drivers\STM32G4xx_HAL_Driver\Src\stm32g4xx_hal_pwr_ex.c 0x00000000   Number         0  stm32g4xx_hal_pwr_ex.o ABSOLUTE
    ..\Drivers\STM32G4xx_HAL_Driver\Src\stm32g4xx_hal_rcc.c 0x00000000   Number         0  stm32g4xx_hal_rcc.o ABSOLUTE
    ..\Drivers\STM32G4xx_HAL_Driver\Src\stm32g4xx_hal_rcc_ex.c 0x00000000   Number         0  stm32g4xx_hal_rcc_ex.o ABSOLUTE
    ..\Drivers\STM32G4xx_HAL_Driver\Src\stm32g4xx_hal_tim.c 0x00000000   Number         0  stm32g4xx_hal_tim.o ABSOLUTE
    ..\Drivers\STM32G4xx_HAL_Driver\Src\stm32g4xx_hal_tim_ex.c 0x00000000   Number         0  stm32g4xx_hal_tim_ex.o ABSOLUTE
    ..\Drivers\STM32G4xx_HAL_Driver\Src\stm32g4xx_hal_uart.c 0x00000000   Number         0  stm32g4xx_hal_uart.o ABSOLUTE
    ..\Drivers\STM32G4xx_HAL_Driver\Src\stm32g4xx_hal_uart_ex.c 0x00000000   Number         0  stm32g4xx_hal_uart_ex.o ABSOLUTE
    ..\MCSDK_v5.4.4\MotorControl\MCSDK\MCLib\Any\Src\bus_voltage_sensor.c 0x00000000   Number         0  bus_voltage_sensor.o ABSOLUTE
    ..\MCSDK_v5.4.4\MotorControl\MCSDK\MCLib\Any\Src\circle_limitation.c 0x00000000   Number         0  circle_limitation.o ABSOLUTE
    ..\MCSDK_v5.4.4\MotorControl\MCSDK\MCLib\Any\Src\digital_output.c 0x00000000   Number         0  digital_output.o ABSOLUTE
    ..\MCSDK_v5.4.4\MotorControl\MCSDK\MCLib\Any\Src\motor_power_measurement.c 0x00000000   Number         0  motor_power_measurement.o ABSOLUTE
    ..\MCSDK_v5.4.4\MotorControl\MCSDK\MCLib\Any\Src\ntc_temperature_sensor.c 0x00000000   Number         0  ntc_temperature_sensor.o ABSOLUTE
    ..\MCSDK_v5.4.4\MotorControl\MCSDK\MCLib\Any\Src\open_loop.c 0x00000000   Number         0  open_loop.o ABSOLUTE
    ..\MCSDK_v5.4.4\MotorControl\MCSDK\MCLib\Any\Src\pid_regulator.c 0x00000000   Number         0  pid_regulator.o ABSOLUTE
    ..\MCSDK_v5.4.4\MotorControl\MCSDK\MCLib\Any\Src\pqd_motor_power_measurement.c 0x00000000   Number         0  pqd_motor_power_measurement.o ABSOLUTE
    ..\MCSDK_v5.4.4\MotorControl\MCSDK\MCLib\Any\Src\pwm_common.c 0x00000000   Number         0  pwm_common.o ABSOLUTE
    ..\MCSDK_v5.4.4\MotorControl\MCSDK\MCLib\Any\Src\pwm_curr_fdbk.c 0x00000000   Number         0  pwm_curr_fdbk.o ABSOLUTE
    ..\MCSDK_v5.4.4\MotorControl\MCSDK\MCLib\Any\Src\r_divider_bus_voltage_sensor.c 0x00000000   Number         0  r_divider_bus_voltage_sensor.o ABSOLUTE
    ..\MCSDK_v5.4.4\MotorControl\MCSDK\MCLib\Any\Src\ramp_ext_mngr.c 0x00000000   Number         0  ramp_ext_mngr.o ABSOLUTE
    ..\MCSDK_v5.4.4\MotorControl\MCSDK\MCLib\Any\Src\speed_pos_fdbk.c 0x00000000   Number         0  speed_pos_fdbk.o ABSOLUTE
    ..\MCSDK_v5.4.4\MotorControl\MCSDK\MCLib\Any\Src\speed_torq_ctrl.c 0x00000000   Number         0  speed_torq_ctrl.o ABSOLUTE
    ..\MCSDK_v5.4.4\MotorControl\MCSDK\MCLib\Any\Src\state_machine.c 0x00000000   Number         0  state_machine.o ABSOLUTE
    ..\MCSDK_v5.4.4\MotorControl\MCSDK\MCLib\Any\Src\virtual_speed_sensor.c 0x00000000   Number         0  virtual_speed_sensor.o ABSOLUTE
    ..\MCSDK_v5.4.4\MotorControl\MCSDK\MCLib\G4xx\Src\r1_g4xx_pwm_curr_fdbk.c 0x00000000   Number         0  r1_g4xx_pwm_curr_fdbk.o ABSOLUTE
    ..\MCSDK_v5.4.4\MotorControl\MCSDK\UILibrary\Src\frame_communication_protocol.c 0x00000000   Number         0  frame_communication_protocol.o ABSOLUTE
    ..\MCSDK_v5.4.4\MotorControl\MCSDK\UILibrary\Src\ui_irq_handler.c 0x00000000   Number         0  ui_irq_handler.o ABSOLUTE
    ..\MCSDK_v5.4.4\MotorControl\MCSDK\UILibrary\Src\usart_frame_communication_protocol.c 0x00000000   Number         0  usart_frame_communication_protocol.o ABSOLUTE
    ..\Src\main.c                            0x00000000   Number         0  main.o ABSOLUTE
    ..\Src\mc_api.c                          0x00000000   Number         0  mc_api.o ABSOLUTE
    ..\Src\mc_config.c                       0x00000000   Number         0  mc_config.o ABSOLUTE
    ..\Src\mc_interface.c                    0x00000000   Number         0  mc_interface.o ABSOLUTE
    ..\Src\mc_math.c                         0x00000000   Number         0  mc_math.o ABSOLUTE
    ..\Src\mc_parameters.c                   0x00000000   Number         0  mc_parameters.o ABSOLUTE
    ..\Src\mc_tasks.c                        0x00000000   Number         0  mc_tasks.o ABSOLUTE
    ..\Src\motor_control_protocol.c          0x00000000   Number         0  motor_control_protocol.o ABSOLUTE
    ..\Src\motorcontrol.c                    0x00000000   Number         0  motorcontrol.o ABSOLUTE
    ..\Src\regular_conversion_manager.c      0x00000000   Number         0  regular_conversion_manager.o ABSOLUTE
    ..\Src\stm32g4xx_hal_msp.c               0x00000000   Number         0  stm32g4xx_hal_msp.o ABSOLUTE
    ..\Src\stm32g4xx_it.c                    0x00000000   Number         0  stm32g4xx_it.o ABSOLUTE
    ..\Src\stm32g4xx_mc_it.c                 0x00000000   Number         0  stm32g4xx_mc_it.o ABSOLUTE
    ..\Src\system_stm32g4xx.c                0x00000000   Number         0  system_stm32g4xx.o ABSOLUTE
    ..\Src\ui_task.c                         0x00000000   Number         0  ui_task.o ABSOLUTE
    ..\Src\user_interface.c                  0x00000000   Number         0  user_interface.o ABSOLUTE
    C:\Users\frq02147\STM32Cube\Repository\MotorControlDev\MCSDK\MCLib\Any\Src\\revup_ctrl.c 0x00000000   Number         0  revup_ctrl.o ABSOLUTE
    C:\Users\frq02147\STM32Cube\Repository\MotorControlDev\MCSDK\MCLib\Any\Src\\sto_pll_speed_pos_fdbk.c 0x00000000   Number         0  sto_pll_speed_pos_fdbk.o ABSOLUTE
    C:\\Users\\frq02147\\STM32Cube\\Repository\\MotorControlDev\\MCSDK\\MCLib\\Any\\Src\\\\revup_ctrl.c 0x00000000   Number         0  revup_ctrl.o ABSOLUTE
    C:\\Users\\frq02147\\STM32Cube\\Repository\\MotorControlDev\\MCSDK\\MCLib\\Any\\Src\\\\sto_pll_speed_pos_fdbk.c 0x00000000   Number         0  sto_pll_speed_pos_fdbk.o ABSOLUTE
    dc.s                                     0x00000000   Number         0  dc.o ABSOLUTE
    handlers.s                               0x00000000   Number         0  handlers.o ABSOLUTE
    init.s                                   0x00000000   Number         0  init.o ABSOLUTE
    startup_stm32g431xx.s                    0x00000000   Number         0  startup_stm32g431xx.o ABSOLUTE
    RESET                                    0x08000000   Section      472  startup_stm32g431xx.o(RESET)
    .ARM.Collect$$$$00000000                 0x080001d8   Section        0  entry.o(.ARM.Collect$$$$00000000)
    .ARM.Collect$$$$00000001                 0x080001d8   Section        4  entry2.o(.ARM.Collect$$$$00000001)
    .ARM.Collect$$$$00000004                 0x080001dc   Section        4  entry5.o(.ARM.Collect$$$$00000004)
    .ARM.Collect$$$$00000008                 0x080001e0   Section        0  entry7b.o(.ARM.Collect$$$$00000008)
    .ARM.Collect$$$$0000000A                 0x080001e0   Section        0  entry8b.o(.ARM.Collect$$$$0000000A)
    .ARM.Collect$$$$0000000B                 0x080001e0   Section        8  entry9a.o(.ARM.Collect$$$$0000000B)
    .ARM.Collect$$$$0000000D                 0x080001e8   Section        0  entry10a.o(.ARM.Collect$$$$0000000D)
    .ARM.Collect$$$$0000000F                 0x080001e8   Section        0  entry11a.o(.ARM.Collect$$$$0000000F)
    .ARM.Collect$$$$00002712                 0x080001e8   Section        4  entry2.o(.ARM.Collect$$$$00002712)
    __lit__00000000                          0x080001e8   Data           4  entry2.o(.ARM.Collect$$$$00002712)
    .ccmram                                  0x080001ec   Section        0  revup_ctrl.o(.ccmram)
    .ccmram                                  0x08000200   Section        0  sto_pll_speed_pos_fdbk.o(.ccmram)
    .text                                    0x08000428   Section       36  startup_stm32g431xx.o(.text)
    $v0                                      0x08000428   Number         0  startup_stm32g431xx.o(.text)
    .text                                    0x0800044c   Section        0  revup_ctrl.o(.text)
    .text                                    0x08000814   Section        0  sto_pll_speed_pos_fdbk.o(.text)
    .text                                    0x08000bac   Section        0  uldiv.o(.text)
    .text                                    0x08000c0e   Section        0  memseta.o(.text)
    .text                                    0x08000c32   Section        0  llshl.o(.text)
    .text                                    0x08000c50   Section        0  llushr.o(.text)
    .text                                    0x08000c70   Section       36  init.o(.text)
    .text                                    0x08000c94   Section        0  __dczerorl2.o(.text)
    i.ADC1_2_IRQHandler                      0x08000cea   Section        0  stm32g4xx_mc_it.o(i.ADC1_2_IRQHandler)
    i.Circle_Limitation                      0x08000cf6   Section        0  circle_limitation.o(i.Circle_Limitation)
    i.DMA1_Channel1_IRQHandler               0x08000d4c   Section        0  stm32g4xx_mc_it.o(i.DMA1_Channel1_IRQHandler)
    i.EXTI15_10_IRQHandler                   0x08000d70   Section        0  stm32g4xx_mc_it.o(i.EXTI15_10_IRQHandler)
    i.Error_Handler                          0x08000d8c   Section        0  main.o(i.Error_Handler)
    i.FCP_CalcCRC                            0x08000d8e   Section        0  frame_communication_protocol.o(i.FCP_CalcCRC)
    i.FCP_Init                               0x08000dbc   Section        0  frame_communication_protocol.o(i.FCP_Init)
    i.FCP_SetClient                          0x08000de6   Section        0  frame_communication_protocol.o(i.FCP_SetClient)
    i.FOC_CalcCurrRef                        0x08000df4   Section        0  mc_tasks.o(i.FOC_CalcCurrRef)
    i.FOC_Clear                              0x08000e28   Section        0  mc_tasks.o(i.FOC_Clear)
    i.FOC_InitAdditionalMethods              0x08000e94   Section        0  mc_tasks.o(i.FOC_InitAdditionalMethods)
    i.HAL_ADCEx_InjectedConfigChannel        0x08000e98   Section        0  stm32g4xx_hal_adc_ex.o(i.HAL_ADCEx_InjectedConfigChannel)
    i.HAL_ADCEx_MultiModeConfigChannel       0x08001484   Section        0  stm32g4xx_hal_adc_ex.o(i.HAL_ADCEx_MultiModeConfigChannel)
    i.HAL_ADC_ConfigChannel                  0x08001564   Section        0  stm32g4xx_hal_adc.o(i.HAL_ADC_ConfigChannel)
    i.HAL_ADC_Init                           0x08001a34   Section        0  stm32g4xx_hal_adc.o(i.HAL_ADC_Init)
    i.HAL_ADC_MspInit                        0x08001c70   Section        0  stm32g4xx_hal_msp.o(i.HAL_ADC_MspInit)
    i.HAL_CORDIC_Init                        0x08001cec   Section        0  stm32g4xx_hal_cordic.o(i.HAL_CORDIC_Init)
    i.HAL_CORDIC_MspInit                     0x08001d20   Section        0  stm32g4xx_hal_msp.o(i.HAL_CORDIC_MspInit)
    i.HAL_DMA_Init                           0x08001d4c   Section        0  stm32g4xx_hal_dma.o(i.HAL_DMA_Init)
    i.HAL_GPIO_Init                          0x08001e74   Section        0  stm32g4xx_hal_gpio.o(i.HAL_GPIO_Init)
    i.HAL_GPIO_WritePin                      0x08002098   Section        0  stm32g4xx_hal_gpio.o(i.HAL_GPIO_WritePin)
    i.HAL_GetTick                            0x080020a4   Section        0  stm32g4xx_hal.o(i.HAL_GetTick)
    i.HAL_IncTick                            0x080020b0   Section        0  stm32g4xx_hal.o(i.HAL_IncTick)
    i.HAL_Init                               0x080020c0   Section        0  stm32g4xx_hal.o(i.HAL_Init)
    i.HAL_InitTick                           0x080020e0   Section        0  stm32g4xx_hal.o(i.HAL_InitTick)
    i.HAL_MspInit                            0x08002124   Section        0  stm32g4xx_hal_msp.o(i.HAL_MspInit)
    i.HAL_NVIC_EnableIRQ                     0x08002164   Section        0  stm32g4xx_hal_cortex.o(i.HAL_NVIC_EnableIRQ)
    i.HAL_NVIC_SetPriority                   0x08002184   Section        0  stm32g4xx_hal_cortex.o(i.HAL_NVIC_SetPriority)
    i.HAL_NVIC_SetPriorityGrouping           0x080021e8   Section        0  stm32g4xx_hal_cortex.o(i.HAL_NVIC_SetPriorityGrouping)
    i.HAL_PWREx_ControlVoltageScaling        0x0800220c   Section        0  stm32g4xx_hal_pwr_ex.o(i.HAL_PWREx_ControlVoltageScaling)
    i.HAL_RCCEx_PeriphCLKConfig              0x080022cc   Section        0  stm32g4xx_hal_rcc_ex.o(i.HAL_RCCEx_PeriphCLKConfig)
    i.HAL_RCC_ClockConfig                    0x08002590   Section        0  stm32g4xx_hal_rcc.o(i.HAL_RCC_ClockConfig)
    i.HAL_RCC_EnableCSS                      0x08002798   Section        0  stm32g4xx_hal_rcc.o(i.HAL_RCC_EnableCSS)
    i.HAL_RCC_GetHCLKFreq                    0x080027a8   Section        0  stm32g4xx_hal_rcc.o(i.HAL_RCC_GetHCLKFreq)
    i.HAL_RCC_GetPCLK1Freq                   0x080027b4   Section        0  stm32g4xx_hal_rcc.o(i.HAL_RCC_GetPCLK1Freq)
    i.HAL_RCC_GetPCLK2Freq                   0x080027d8   Section        0  stm32g4xx_hal_rcc.o(i.HAL_RCC_GetPCLK2Freq)
    i.HAL_RCC_GetSysClockFreq                0x080027fc   Section        0  stm32g4xx_hal_rcc.o(i.HAL_RCC_GetSysClockFreq)
    i.HAL_RCC_OscConfig                      0x0800286c   Section        0  stm32g4xx_hal_rcc.o(i.HAL_RCC_OscConfig)
    i.HAL_SYSTICK_Callback                   0x08002d36   Section        0  stm32g4xx_hal_cortex.o(i.HAL_SYSTICK_Callback)
    i.HAL_SYSTICK_Config                     0x08002d38   Section        0  stm32g4xx_hal_cortex.o(i.HAL_SYSTICK_Config)
    i.HAL_SYSTICK_IRQHandler                 0x08002d64   Section        0  stm32g4xx_hal_cortex.o(i.HAL_SYSTICK_IRQHandler)
    i.HAL_TIMEx_ConfigBreakDeadTime          0x08002d6c   Section        0  stm32g4xx_hal_tim_ex.o(i.HAL_TIMEx_ConfigBreakDeadTime)
    i.HAL_TIMEx_ConfigBreakInput             0x08002e28   Section        0  stm32g4xx_hal_tim_ex.o(i.HAL_TIMEx_ConfigBreakInput)
    i.HAL_TIMEx_MasterConfigSynchronization  0x08002f04   Section        0  stm32g4xx_hal_tim_ex.o(i.HAL_TIMEx_MasterConfigSynchronization)
    i.HAL_TIM_Base_Init                      0x08002f6c   Section        0  stm32g4xx_hal_tim.o(i.HAL_TIM_Base_Init)
    i.HAL_TIM_Base_MspInit                   0x08002fa4   Section        0  stm32g4xx_hal_msp.o(i.HAL_TIM_Base_MspInit)
    i.HAL_TIM_MspPostInit                    0x08003048   Section        0  stm32g4xx_hal_msp.o(i.HAL_TIM_MspPostInit)
    i.HAL_TIM_PWM_ConfigChannel              0x080030e0   Section        0  stm32g4xx_hal_tim.o(i.HAL_TIM_PWM_ConfigChannel)
    i.HAL_TIM_PWM_Init                       0x08003450   Section        0  stm32g4xx_hal_tim.o(i.HAL_TIM_PWM_Init)
    i.HAL_TIM_PWM_MspInit                    0x08003486   Section        0  stm32g4xx_hal_tim.o(i.HAL_TIM_PWM_MspInit)
    i.HAL_TIM_SlaveConfigSynchro             0x08003488   Section        0  stm32g4xx_hal_tim.o(i.HAL_TIM_SlaveConfigSynchro)
    i.HAL_UARTEx_DisableFifoMode             0x080034de   Section        0  stm32g4xx_hal_uart_ex.o(i.HAL_UARTEx_DisableFifoMode)
    i.HAL_UARTEx_EnableFifoMode              0x0800351c   Section        0  stm32g4xx_hal_uart_ex.o(i.HAL_UARTEx_EnableFifoMode)
    i.HAL_UARTEx_SetRxFifoThreshold          0x080035d4   Section        0  stm32g4xx_hal_uart_ex.o(i.HAL_UARTEx_SetRxFifoThreshold)
    i.HAL_UARTEx_SetTxFifoThreshold          0x08003680   Section        0  stm32g4xx_hal_uart_ex.o(i.HAL_UARTEx_SetTxFifoThreshold)
    i.HAL_UART_Init                          0x0800372c   Section        0  stm32g4xx_hal_uart.o(i.HAL_UART_Init)
    i.HAL_UART_MspInit                       0x0800379c   Section        0  stm32g4xx_hal_msp.o(i.HAL_UART_MspInit)
    i.HardFault_Handler                      0x080037fc   Section        0  stm32g4xx_mc_it.o(i.HardFault_Handler)
    i.LL_TIM_OC_EnablePreload                0x08003864   Section        0  r1_g4xx_pwm_curr_fdbk.o(i.LL_TIM_OC_EnablePreload)
    LL_TIM_OC_EnablePreload                  0x08003865   Thumb Code   108  r1_g4xx_pwm_curr_fdbk.o(i.LL_TIM_OC_EnablePreload)
    i.MCI_Clear_Iqdref                       0x080038d8   Section        0  mc_interface.o(i.MCI_Clear_Iqdref)
    i.MCI_EncoderAlign                       0x080038e8   Section        0  mc_interface.o(i.MCI_EncoderAlign)
    i.MCI_ExecBufferedCommands               0x080038f0   Section        0  mc_interface.o(i.MCI_ExecBufferedCommands)
    i.MCI_ExecSpeedRamp                      0x08003968   Section        0  mc_interface.o(i.MCI_ExecSpeedRamp)
    i.MCI_ExecTorqueRamp                     0x08003976   Section        0  mc_interface.o(i.MCI_ExecTorqueRamp)
    i.MCI_FaultAcknowledged                  0x08003988   Section        0  mc_interface.o(i.MCI_FaultAcknowledged)
    i.MCI_GetAvrgMecSpeedUnit                0x0800398e   Section        0  mc_interface.o(i.MCI_GetAvrgMecSpeedUnit)
    i.MCI_GetControlMode                     0x0800399e   Section        0  mc_interface.o(i.MCI_GetControlMode)
    i.MCI_GetIab                             0x080039a2   Section        0  mc_interface.o(i.MCI_GetIab)
    i.MCI_GetIalphabeta                      0x080039a8   Section        0  mc_interface.o(i.MCI_GetIalphabeta)
    i.MCI_GetImposedMotorDirection           0x080039ae   Section        0  mc_interface.o(i.MCI_GetImposedMotorDirection)
    i.MCI_GetIqd                             0x080039e4   Section        0  mc_interface.o(i.MCI_GetIqd)
    i.MCI_GetIqdref                          0x080039ea   Section        0  mc_interface.o(i.MCI_GetIqdref)
    i.MCI_GetLastRampFinalSpeed              0x080039f0   Section        0  mc_interface.o(i.MCI_GetLastRampFinalSpeed)
    i.MCI_GetMecSpeedRefUnit                 0x08003a00   Section        0  mc_interface.o(i.MCI_GetMecSpeedRefUnit)
    i.MCI_GetSTMState                        0x08003a06   Section        0  mc_interface.o(i.MCI_GetSTMState)
    i.MCI_GetTeref                           0x08003a0c   Section        0  mc_interface.o(i.MCI_GetTeref)
    i.MCI_GetValphabeta                      0x08003a14   Section        0  mc_interface.o(i.MCI_GetValphabeta)
    i.MCI_GetVqd                             0x08003a1c   Section        0  mc_interface.o(i.MCI_GetVqd)
    i.MCI_Init                               0x08003a24   Section        0  mc_interface.o(i.MCI_Init)
    i.MCI_SetCurrentReferences               0x08003a38   Section        0  mc_interface.o(i.MCI_SetCurrentReferences)
    i.MCI_SetIdref                           0x08003a4c   Section        0  mc_interface.o(i.MCI_SetIdref)
    i.MCI_StartMotor                         0x08003a56   Section        0  mc_interface.o(i.MCI_StartMotor)
    i.MCI_StopMotor                          0x08003a6c   Section        0  mc_interface.o(i.MCI_StopMotor)
    i.MCI_StopRamp                           0x08003a74   Section        0  mc_interface.o(i.MCI_StopRamp)
    i.MCM_Clarke                             0x08003a7c   Section        0  mc_math.o(i.MCM_Clarke)
    i.MCM_Park                               0x08003ac8   Section        0  mc_math.o(i.MCM_Park)
    i.MCM_Rev_Park                           0x08003b4c   Section        0  mc_math.o(i.MCM_Rev_Park)
    i.MCM_Trig_Functions                     0x08003b84   Section        0  mc_math.o(i.MCM_Trig_Functions)
    i.MCP_Init                               0x08003b9c   Section        0  motor_control_protocol.o(i.MCP_Init)
    i.MCP_OnTimeOut                          0x08003bdc   Section        0  motor_control_protocol.o(i.MCP_OnTimeOut)
    i.MCP_ReceivedFrame                      0x08003be4   Section        0  motor_control_protocol.o(i.MCP_ReceivedFrame)
    i.MCP_SentFrame                          0x0800424c   Section        0  motor_control_protocol.o(i.MCP_SentFrame)
    i.MCP_WaitNextFrame                      0x08004254   Section        0  motor_control_protocol.o(i.MCP_WaitNextFrame)
    i.MC_GetSTMStateMotor1                   0x08004270   Section        0  mc_api.o(i.MC_GetSTMStateMotor1)
    i.MC_RunMotorControlTasks                0x0800427c   Section        0  mc_tasks.o(i.MC_RunMotorControlTasks)
    i.MC_Scheduler                           0x0800429c   Section        0  mc_tasks.o(i.MC_Scheduler)
    i.MC_StartMotor1                         0x080042dc   Section        0  mc_api.o(i.MC_StartMotor1)
    i.MC_StopMotor1                          0x080042e8   Section        0  mc_api.o(i.MC_StopMotor1)
    i.MCboot                                 0x080042f4   Section        0  mc_tasks.o(i.MCboot)
    i.MPM_CalcElMotorPower                   0x080044ac   Section        0  motor_power_measurement.o(i.MPM_CalcElMotorPower)
    i.MPM_Clear                              0x080044f2   Section        0  motor_power_measurement.o(i.MPM_Clear)
    i.MPM_GetAvrgElMotorPowerW               0x0800450c   Section        0  motor_power_measurement.o(i.MPM_GetAvrgElMotorPowerW)
    i.MX_MotorControl_Init                   0x08004514   Section        0  motorcontrol.o(i.MX_MotorControl_Init)
    i.NTC_CalcAvTemp                         0x0800454c   Section        0  ntc_temperature_sensor.o(i.NTC_CalcAvTemp)
    i.NTC_Clear                              0x08004586   Section        0  ntc_temperature_sensor.o(i.NTC_Clear)
    i.NTC_GetAvTemp_C                        0x0800458c   Section        0  ntc_temperature_sensor.o(i.NTC_GetAvTemp_C)
    i.NTC_Init                               0x080045b4   Section        0  ntc_temperature_sensor.o(i.NTC_Init)
    i.NTC_SetFaultState                      0x080045d8   Section        0  ntc_temperature_sensor.o(i.NTC_SetFaultState)
    i.PID_GetKD                              0x080045f0   Section        0  pid_regulator.o(i.PID_GetKD)
    i.PID_GetKI                              0x080045f6   Section        0  pid_regulator.o(i.PID_GetKI)
    i.PID_GetKIDivisor                       0x080045fc   Section        0  pid_regulator.o(i.PID_GetKIDivisor)
    i.PID_GetKP                              0x08004600   Section        0  pid_regulator.o(i.PID_GetKP)
    i.PID_GetKPDivisor                       0x08004606   Section        0  pid_regulator.o(i.PID_GetKPDivisor)
    i.PID_HandleInit                         0x0800460a   Section        0  pid_regulator.o(i.PID_HandleInit)
    i.PID_SetIntegralTerm                    0x0800461e   Section        0  pid_regulator.o(i.PID_SetIntegralTerm)
    i.PID_SetKD                              0x08004622   Section        0  pid_regulator.o(i.PID_SetKD)
    i.PID_SetKI                              0x08004626   Section        0  pid_regulator.o(i.PID_SetKI)
    i.PID_SetKP                              0x0800462a   Section        0  pid_regulator.o(i.PID_SetKP)
    i.PI_Controller                          0x08004630   Section        0  pid_regulator.o(i.PI_Controller)
    i.PQD_CalcElMotorPower                   0x080046b0   Section        0  pqd_motor_power_measurement.o(i.PQD_CalcElMotorPower)
    i.PWMC_CheckOverCurrent                  0x08004710   Section        0  pwm_curr_fdbk.o(i.PWMC_CheckOverCurrent)
    i.PWMC_CurrentReadingCalibr              0x08004714   Section        0  pwm_curr_fdbk.o(i.PWMC_CurrentReadingCalibr)
    i.PWMC_GetPhaseCurrents                  0x08004756   Section        0  pwm_curr_fdbk.o(i.PWMC_GetPhaseCurrents)
    i.PWMC_SetPhaseVoltage                   0x0800475a   Section        0  pwm_curr_fdbk.o(i.PWMC_SetPhaseVoltage)
    i.PWMC_SwitchOffPWM                      0x08004934   Section        0  pwm_curr_fdbk.o(i.PWMC_SwitchOffPWM)
    i.PWMC_SwitchOnPWM                       0x08004938   Section        0  pwm_curr_fdbk.o(i.PWMC_SwitchOnPWM)
    i.PWMC_TurnOnLowSides                    0x0800493c   Section        0  pwm_curr_fdbk.o(i.PWMC_TurnOnLowSides)
    i.R1_1ShuntMotorVarsInit                 0x08004940   Section        0  r1_g4xx_pwm_curr_fdbk.o(i.R1_1ShuntMotorVarsInit)
    i.R1_BRK2_IRQHandler                     0x0800498e   Section        0  r1_g4xx_pwm_curr_fdbk.o(i.R1_BRK2_IRQHandler)
    i.R1_BRK_IRQHandler                      0x080049c4   Section        0  r1_g4xx_pwm_curr_fdbk.o(i.R1_BRK_IRQHandler)
    i.R1_CalcDutyCycles                      0x080049e0   Section        0  r1_g4xx_pwm_curr_fdbk.o(i.R1_CalcDutyCycles)
    i.R1_CurrentReadingPolarization          0x08004d1c   Section        0  r1_g4xx_pwm_curr_fdbk.o(i.R1_CurrentReadingPolarization)
    i.R1_GetPhaseCurrents                    0x08004d94   Section        0  r1_g4xx_pwm_curr_fdbk.o(i.R1_GetPhaseCurrents)
    i.R1_HFCurrentsPolarization              0x08004ef4   Section        0  r1_g4xx_pwm_curr_fdbk.o(i.R1_HFCurrentsPolarization)
    i.R1_Init                                0x08004f28   Section        0  r1_g4xx_pwm_curr_fdbk.o(i.R1_Init)
    i.R1_IsOverCurrentOccurred               0x08005338   Section        0  r1_g4xx_pwm_curr_fdbk.o(i.R1_IsOverCurrentOccurred)
    i.R1_SetADCSampPointPolarization         0x0800535e   Section        0  r1_g4xx_pwm_curr_fdbk.o(i.R1_SetADCSampPointPolarization)
    i.R1_SetAOReferenceVoltage               0x08005388   Section        0  r1_g4xx_pwm_curr_fdbk.o(i.R1_SetAOReferenceVoltage)
    i.R1_SwitchOffPWM                        0x080053f4   Section        0  r1_g4xx_pwm_curr_fdbk.o(i.R1_SwitchOffPWM)
    i.R1_SwitchOnPWM                         0x08005478   Section        0  r1_g4xx_pwm_curr_fdbk.o(i.R1_SwitchOnPWM)
    i.R1_TIMxInit                            0x08005562   Section        0  r1_g4xx_pwm_curr_fdbk.o(i.R1_TIMxInit)
    i.R1_TIMx_UP_IRQHandler                  0x08005640   Section        0  r1_g4xx_pwm_curr_fdbk.o(i.R1_TIMx_UP_IRQHandler)
    i.R1_TurnOnLowSides                      0x0800571c   Section        0  r1_g4xx_pwm_curr_fdbk.o(i.R1_TurnOnLowSides)
    i.RCM_ExecNextConv                       0x08005770   Section        0  regular_conversion_manager.o(i.RCM_ExecNextConv)
    i.RCM_ExecRegularConv                    0x08005804   Section        0  regular_conversion_manager.o(i.RCM_ExecRegularConv)
    i.RCM_ExecUserConv                       0x08005948   Section        0  regular_conversion_manager.o(i.RCM_ExecUserConv)
    i.RCM_ReadOngoingConv                    0x0800598c   Section        0  regular_conversion_manager.o(i.RCM_ReadOngoingConv)
    i.RCM_RegisterRegConv                    0x080059c4   Section        0  regular_conversion_manager.o(i.RCM_RegisterRegConv)
    i.REMNG_Calc                             0x08005af4   Section        0  ramp_ext_mngr.o(i.REMNG_Calc)
    i.REMNG_ExecRamp                         0x08005b20   Section        0  ramp_ext_mngr.o(i.REMNG_ExecRamp)
    i.REMNG_Init                             0x08005ba2   Section        0  ramp_ext_mngr.o(i.REMNG_Init)
    i.REMNG_RampCompleted                    0x08005bb2   Section        0  ramp_ext_mngr.o(i.REMNG_RampCompleted)
    i.RVBS_CalcAvVbus                        0x08005bc0   Section        0  r_divider_bus_voltage_sensor.o(i.RVBS_CalcAvVbus)
    i.RVBS_CheckFaultState                   0x08005c24   Section        0  r_divider_bus_voltage_sensor.o(i.RVBS_CheckFaultState)
    i.RVBS_Clear                             0x08005c3c   Section        0  r_divider_bus_voltage_sensor.o(i.RVBS_Clear)
    i.RVBS_Init                              0x08005c68   Section        0  r_divider_bus_voltage_sensor.o(i.RVBS_Init)
    i.SPD_GetAvrgMecSpeedUnit                0x08005c7e   Section        0  speed_pos_fdbk.o(i.SPD_GetAvrgMecSpeedUnit)
    i.SPD_GetElAngle                         0x08005c84   Section        0  speed_pos_fdbk.o(i.SPD_GetElAngle)
    i.SPD_GetInstElSpeedDpp                  0x08005c8a   Section        0  speed_pos_fdbk.o(i.SPD_GetInstElSpeedDpp)
    i.SPD_GetS16Speed                        0x08005c90   Section        0  speed_pos_fdbk.o(i.SPD_GetS16Speed)
    i.SPD_IsMecSpeedReliable                 0x08005ca4   Section        0  speed_pos_fdbk.o(i.SPD_IsMecSpeedReliable)
    i.STC_CalcTorqueReference                0x08005d04   Section        0  speed_torq_ctrl.o(i.STC_CalcTorqueReference)
    i.STC_Clear                              0x08005d60   Section        0  speed_torq_ctrl.o(i.STC_Clear)
    i.STC_ExecRamp                           0x08005d70   Section        0  speed_torq_ctrl.o(i.STC_ExecRamp)
    i.STC_ForceSpeedReferenceToCurrentSpeed  0x08005e02   Section        0  speed_torq_ctrl.o(i.STC_ForceSpeedReferenceToCurrentSpeed)
    i.STC_GetDefaultIqdref                   0x08005e12   Section        0  speed_torq_ctrl.o(i.STC_GetDefaultIqdref)
    i.STC_GetMaxAppPositiveMecSpeedUnit      0x08005e22   Section        0  speed_torq_ctrl.o(i.STC_GetMaxAppPositiveMecSpeedUnit)
    i.STC_GetMecSpeedRefUnit                 0x08005e26   Section        0  speed_torq_ctrl.o(i.STC_GetMecSpeedRefUnit)
    i.STC_GetMecSpeedRefUnitDefault          0x08005e32   Section        0  speed_torq_ctrl.o(i.STC_GetMecSpeedRefUnitDefault)
    i.STC_GetMinAppNegativeMecSpeedUnit      0x08005e38   Section        0  speed_torq_ctrl.o(i.STC_GetMinAppNegativeMecSpeedUnit)
    i.STC_GetSpeedSensor                     0x08005e3e   Section        0  speed_torq_ctrl.o(i.STC_GetSpeedSensor)
    i.STC_GetTorqueRef                       0x08005e42   Section        0  speed_torq_ctrl.o(i.STC_GetTorqueRef)
    i.STC_Init                               0x08005e4e   Section        0  speed_torq_ctrl.o(i.STC_Init)
    i.STC_SetControlMode                     0x08005e6e   Section        0  speed_torq_ctrl.o(i.STC_SetControlMode)
    i.STC_SetSpeedSensor                     0x08005e76   Section        0  speed_torq_ctrl.o(i.STC_SetSpeedSensor)
    i.STC_StopRamp                           0x08005e7a   Section        0  speed_torq_ctrl.o(i.STC_StopRamp)
    i.STM_FaultAcknowledged                  0x08005e82   Section        0  state_machine.o(i.STM_FaultAcknowledged)
    i.STM_FaultProcessing                    0x08005e98   Section        0  state_machine.o(i.STM_FaultProcessing)
    i.STM_GetFaultState                      0x08005ece   Section        0  state_machine.o(i.STM_GetFaultState)
    i.STM_GetState                           0x08005ed8   Section        0  state_machine.o(i.STM_GetState)
    i.STM_Init                               0x08005edc   Section        0  state_machine.o(i.STM_Init)
    i.STM_NextState                          0x08005ee6   Section        0  state_machine.o(i.STM_NextState)
    i.SysTick_Handler                        0x08005fe4   Section        0  stm32g4xx_mc_it.o(i.SysTick_Handler)
    i.SystemInit                             0x0800600c   Section        0  system_stm32g4xx.o(i.SystemInit)
    i.TIM1_BRK_TIM15_IRQHandler              0x08006028   Section        0  stm32g4xx_mc_it.o(i.TIM1_BRK_TIM15_IRQHandler)
    i.TIM1_UP_TIM16_IRQHandler               0x0800606c   Section        0  stm32g4xx_mc_it.o(i.TIM1_UP_TIM16_IRQHandler)
    i.TIM_Base_SetConfig                     0x08006084   Section        0  stm32g4xx_hal_tim.o(i.TIM_Base_SetConfig)
    i.TIM_OC2_SetConfig                      0x08006138   Section        0  stm32g4xx_hal_tim.o(i.TIM_OC2_SetConfig)
    i.TIM_SlaveTimer_SetConfig               0x080061c8   Section        0  stm32g4xx_hal_tim.o(i.TIM_SlaveTimer_SetConfig)
    TIM_SlaveTimer_SetConfig                 0x080061c9   Thumb Code   248  stm32g4xx_hal_tim.o(i.TIM_SlaveTimer_SetConfig)
    i.TSK_ChargeBootCapDelayHasElapsedM1     0x080062c0   Section        0  mc_tasks.o(i.TSK_ChargeBootCapDelayHasElapsedM1)
    i.TSK_HardwareFaultTask                  0x080062d4   Section        0  mc_tasks.o(i.TSK_HardwareFaultTask)
    i.TSK_HighFrequencyTask                  0x080062f4   Section        0  mc_tasks.o(i.TSK_HighFrequencyTask)
    i.TSK_MediumFrequencyTaskM1              0x08006454   Section        0  mc_tasks.o(i.TSK_MediumFrequencyTaskM1)
    i.TSK_SafetyTask                         0x080066f0   Section        0  mc_tasks.o(i.TSK_SafetyTask)
    i.TSK_SafetyTask_PWMOFF                  0x08006710   Section        0  mc_tasks.o(i.TSK_SafetyTask_PWMOFF)
    i.TSK_SetChargeBootCapDelayM1            0x080067a8   Section        0  mc_tasks.o(i.TSK_SetChargeBootCapDelayM1)
    i.TSK_SetStopPermanencyTimeM1            0x080067b4   Section        0  mc_tasks.o(i.TSK_SetStopPermanencyTimeM1)
    i.TSK_StopPermanencyTimeHasElapsedM1     0x080067c0   Section        0  mc_tasks.o(i.TSK_StopPermanencyTimeHasElapsedM1)
    i.UART_AdvFeatureConfig                  0x080067d4   Section        0  stm32g4xx_hal_uart.o(i.UART_AdvFeatureConfig)
    i.UART_CheckIdleState                    0x080068ae   Section        0  stm32g4xx_hal_uart.o(i.UART_CheckIdleState)
    i.UART_SetConfig                         0x08006910   Section        0  stm32g4xx_hal_uart.o(i.UART_SetConfig)
    i.UART_WaitOnFlagUntilTimeout            0x080071c2   Section        0  stm32g4xx_hal_uart.o(i.UART_WaitOnFlagUntilTimeout)
    i.UFCP_AbortReceive                      0x08007238   Section        0  usart_frame_communication_protocol.o(i.UFCP_AbortReceive)
    i.UFCP_Init                              0x08007240   Section        0  usart_frame_communication_protocol.o(i.UFCP_Init)
    i.UFCP_OVR_IRQ_Handler                   0x08007244   Section        0  usart_frame_communication_protocol.o(i.UFCP_OVR_IRQ_Handler)
    i.UFCP_RX_IRQ_Handler                    0x08007258   Section        0  usart_frame_communication_protocol.o(i.UFCP_RX_IRQ_Handler)
    i.UFCP_Receive                           0x08007318   Section        0  usart_frame_communication_protocol.o(i.UFCP_Receive)
    i.UFCP_Send                              0x08007340   Section        0  usart_frame_communication_protocol.o(i.UFCP_Send)
    i.UFCP_TX_IRQ_Handler                    0x08007396   Section        0  usart_frame_communication_protocol.o(i.UFCP_TX_IRQ_Handler)
    i.UI_ExecCmd                             0x080073fa   Section        0  user_interface.o(i.UI_ExecCmd)
    i.UI_ExecSpeedRamp                       0x08007468   Section        0  user_interface.o(i.UI_ExecSpeedRamp)
    i.UI_ExecTorqueRamp                      0x08007498   Section        0  user_interface.o(i.UI_ExecTorqueRamp)
    i.UI_GetMPInfo                           0x080074aa   Section        0  user_interface.o(i.UI_GetMPInfo)
    i.UI_GetReg                              0x080074b0   Section        0  user_interface.o(i.UI_GetReg)
    i.UI_GetRevupData                        0x08007a00   Section        0  user_interface.o(i.UI_GetRevupData)
    i.UI_GetSelectedMC                       0x08007a48   Section        0  user_interface.o(i.UI_GetSelectedMC)
    i.UI_HandleStartStopButton_cb            0x08007a4c   Section        0  ui_task.o(i.UI_HandleStartStopButton_cb)
    i.UI_Init                                0x08007a64   Section        0  user_interface.o(i.UI_Init)
    i.UI_Scheduler                           0x08007a78   Section        0  ui_task.o(i.UI_Scheduler)
    i.UI_SelectMC                            0x08007aa4   Section        0  user_interface.o(i.UI_SelectMC)
    i.UI_SerialCommunicationTimeOutStart     0x08007ab4   Section        0  ui_task.o(i.UI_SerialCommunicationTimeOutStart)
    i.UI_SerialCommunicationTimeOutStop      0x08007ac0   Section        0  ui_task.o(i.UI_SerialCommunicationTimeOutStop)
    i.UI_SetCurrentReferences                0x08007acc   Section        0  user_interface.o(i.UI_SetCurrentReferences)
    i.UI_SetReg                              0x08007ae4   Section        0  user_interface.o(i.UI_SetReg)
    i.UI_SetRevupData                        0x08007d28   Section        0  user_interface.o(i.UI_SetRevupData)
    i.UI_TaskInit                            0x08007d60   Section        0  ui_task.o(i.UI_TaskInit)
    i.USART2_IRQHandler                      0x08007dd0   Section        0  stm32g4xx_mc_it.o(i.USART2_IRQHandler)
    i.VBS_GetAvBusVoltage_V                  0x08007e38   Section        0  bus_voltage_sensor.o(i.VBS_GetAvBusVoltage_V)
    i.VBS_GetAvBusVoltage_d                  0x08007e42   Section        0  bus_voltage_sensor.o(i.VBS_GetAvBusVoltage_d)
    i.VSS_CalcAvrgMecSpeedUnit               0x08007e46   Section        0  virtual_speed_sensor.o(i.VSS_CalcAvrgMecSpeedUnit)
    i.VSS_CalcElAngle                        0x08007ee2   Section        0  virtual_speed_sensor.o(i.VSS_CalcElAngle)
    i.VSS_Clear                              0x08007f80   Section        0  virtual_speed_sensor.o(i.VSS_Clear)
    i.VSS_Init                               0x08007fac   Section        0  virtual_speed_sensor.o(i.VSS_Init)
    i.VSS_SetCopyObserver                    0x08007fb4   Section        0  virtual_speed_sensor.o(i.VSS_SetCopyObserver)
    i.VSS_SetMecAcceleration                 0x08007fbc   Section        0  virtual_speed_sensor.o(i.VSS_SetMecAcceleration)
    i.VSS_SetMecAngle                        0x08008038   Section        0  virtual_speed_sensor.o(i.VSS_SetMecAngle)
    i.VSS_SetStartTransition                 0x08008046   Section        0  virtual_speed_sensor.o(i.VSS_SetStartTransition)
    i.VSS_TransitionEnded                    0x08008062   Section        0  virtual_speed_sensor.o(i.VSS_TransitionEnded)
    i.__scatterload_copy                     0x08008068   Section       14  handlers.o(i.__scatterload_copy)
    i.__scatterload_null                     0x08008076   Section        2  handlers.o(i.__scatterload_null)
    i.__scatterload_zeroinit                 0x08008078   Section       14  handlers.o(i.__scatterload_zeroinit)
    i.getScalingFactor                       0x08008088   Section        0  ramp_ext_mngr.o(i.getScalingFactor)
    i.main                                   0x080080b0   Section        0  main.o(i.main)
    i.mc_lock_pins                           0x080084cc   Section        0  mc_tasks.o(i.mc_lock_pins)
    i.startTimers                            0x08008584   Section        0  pwm_common.o(i.startTimers)
    i.waitForPolarizationEnd                 0x080085f0   Section        0  pwm_common.o(i.waitForPolarizationEnd)
    .constdata                               0x08008652   Section       32  motorcontrol.o(.constdata)
    .constdata                               0x08008674   Section        2  mc_tasks.o(.constdata)
    .constdata                               0x08008678   Section       80  mc_parameters.o(.constdata)
    .constdata                               0x080086c8   Section       16  system_stm32g4xx.o(.constdata)
    .constdata                               0x080086d8   Section        8  system_stm32g4xx.o(.constdata)
    .constdata                               0x080086e0   Section       56  r1_g4xx_pwm_curr_fdbk.o(.constdata)
    CHANNEL_OFFSET_TAB                       0x080086e0   Data           6  r1_g4xx_pwm_curr_fdbk.o(.constdata)
    REGULAR_SAMP_CUR1                        0x080086e6   Data           6  r1_g4xx_pwm_curr_fdbk.o(.constdata)
    REGULAR_SAMP_CUR2                        0x080086ec   Data           6  r1_g4xx_pwm_curr_fdbk.o(.constdata)
    BOUNDR1_SAMP_CUR2                        0x080086f2   Data           6  r1_g4xx_pwm_curr_fdbk.o(.constdata)
    BOUNDR2_SAMP_CUR1                        0x080086f8   Data           6  r1_g4xx_pwm_curr_fdbk.o(.constdata)
    BOUNDR2_SAMP_CUR2                        0x080086fe   Data           6  r1_g4xx_pwm_curr_fdbk.o(.constdata)
    OFFSET_TAB_CCMRx                         0x08008704   Data          10  r1_g4xx_pwm_curr_fdbk.o(.constdata)
    SHIFT_TAB_OCxx                           0x0800870e   Data          10  r1_g4xx_pwm_curr_fdbk.o(.constdata)
    .constdata                               0x08008718   Section        6  usart_frame_communication_protocol.o(.constdata)
    UFCP_Usart_Timeout_none                  0x08008718   Data           2  usart_frame_communication_protocol.o(.constdata)
    UFCP_Usart_Timeout_start                 0x0800871a   Data           2  usart_frame_communication_protocol.o(.constdata)
    UFCP_Usart_Timeout_stop                  0x0800871c   Data           2  usart_frame_communication_protocol.o(.constdata)
    .data                                    0x20000000   Section       12  motorcontrol.o(.data)
    .data                                    0x2000000c   Section        8  motor_control_protocol.o(.data)
    .data                                    0x20000014   Section      276  mc_config.o(.data)
    .data                                    0x20000128   Section       44  mc_config.o(.data)
    .data                                    0x20000154   Section       44  mc_config.o(.data)
    .data                                    0x20000180   Section       44  mc_config.o(.data)
    .data                                    0x200001ac   Section       52  mc_config.o(.data)
    .data                                    0x200001e0   Section      120  mc_config.o(.data)
    .data                                    0x20000258   Section      136  mc_config.o(.data)
    .data                                    0x200002e0   Section       56  mc_config.o(.data)
    .data                                    0x20000318   Section      296  mc_config.o(.data)
    .data                                    0x20000440   Section       20  mc_config.o(.data)
    .data                                    0x20000454   Section       40  mc_config.o(.data)
    .data                                    0x2000047c   Section       40  mc_config.o(.data)
    .data                                    0x200004a4   Section       24  mc_config.o(.data)
    .data                                    0x200004bc   Section      180  mc_config.o(.data)
    .data                                    0x20000570   Section      316  mc_config.o(.data)
    .data                                    0x200006ac   Section       58  mc_tasks.o(.data)
    hMFTaskCounterM1                         0x200006ae   Data           2  mc_tasks.o(.data)
    hBootCapDelayCounterM1                   0x200006b0   Data           2  mc_tasks.o(.data)
    hStopPermanencyCounterM1                 0x200006b2   Data           2  mc_tasks.o(.data)
    .data                                    0x200006e6   Section        6  regular_conversion_manager.o(.data)
    .data                                    0x200006ec   Section        1  stm32g4xx_mc_it.o(.data)
    SystickDividerCounter                    0x200006ec   Data           1  stm32g4xx_mc_it.o(.data)
    .data                                    0x200006f0   Section       12  ui_task.o(.data)
    bCOMATRTimeCounter                       0x200006f0   Data           2  ui_task.o(.data)
    bUITaskCounter                           0x200006f2   Data           2  ui_task.o(.data)
    bCOMTimeoutCounter                       0x200006f4   Data           2  ui_task.o(.data)
    .data                                    0x200006fc   Section       12  stm32g4xx_hal.o(.data)
    .data                                    0x20000708   Section        4  system_stm32g4xx.o(.data)
    .bss                                     0x2000070c   Section      352  main.o(.bss)
    .bss                                     0x2000086c   Section       96  main.o(.bss)
    .bss                                     0x200008cc   Section       24  mc_config.o(.bss)
    .bss                                     0x200008e4   Section       12  mc_config.o(.bss)
    .bss                                     0x200008f0   Section      152  mc_tasks.o(.bss)
    .bss                                     0x20000988   Section       72  regular_conversion_manager.o(.bss)
    .bss                                     0x200009d0   Section      176  ui_task.o(.bss)
    STACK                                    0x20000a80   Section     1024  startup_stm32g431xx.o(STACK)

    Global Symbols

    Symbol Name                              Value     Ov Type        Size  Object(Section)

    BuildAttributes$$THM_ISAv4$E$P$D$K$B$S$7EM$VFPi3$EXTD16$VFPS$VFMA$PE$A:L22UL41UL21$X:L11$S22US41US21$IEEE1$IW$USESV6$~STKCKD$USESV7$~SHL$OTIME$EBA8$MICROLIB$REQ8$PRES8$EABIv2 0x00000000   Number         0  anon$$obj.o ABSOLUTE
    __ARM_use_no_argv                        0x00000000   Number         0  main.o ABSOLUTE
    __cpp_initialize__aeabi_                  - Undefined Weak Reference
    __cxa_finalize                            - Undefined Weak Reference
    _clock_init                               - Undefined Weak Reference
    _microlib_exit                            - Undefined Weak Reference
    __Vectors_Size                           0x000001d8   Number         0  startup_stm32g431xx.o ABSOLUTE
    __Vectors                                0x08000000   Data           4  startup_stm32g431xx.o(RESET)
    __Vectors_End                            0x080001d8   Data           0  startup_stm32g431xx.o(RESET)
    __main                                   0x080001d9   Thumb Code     0  entry.o(.ARM.Collect$$$$00000000)
    _main_stk                                0x080001d9   Thumb Code     0  entry2.o(.ARM.Collect$$$$00000001)
    _main_scatterload                        0x080001dd   Thumb Code     0  entry5.o(.ARM.Collect$$$$00000004)
    __main_after_scatterload                 0x080001e1   Thumb Code     0  entry5.o(.ARM.Collect$$$$00000004)
    _main_clock                              0x080001e1   Thumb Code     0  entry7b.o(.ARM.Collect$$$$00000008)
    _main_cpp_init                           0x080001e1   Thumb Code     0  entry8b.o(.ARM.Collect$$$$0000000A)
    _main_init                               0x080001e1   Thumb Code     0  entry9a.o(.ARM.Collect$$$$0000000B)
    __rt_final_cpp                           0x080001e9   Thumb Code     0  entry10a.o(.ARM.Collect$$$$0000000D)
    __rt_final_exit                          0x080001e9   Thumb Code     0  entry11a.o(.ARM.Collect$$$$0000000F)
    RUC_FirstAccelerationStageReached        0x080001ed   Thumb Code    20  revup_ctrl.o(.ccmram)
    STO_PLL_CalcElAngle                      0x08000201   Thumb Code   466  sto_pll_speed_pos_fdbk.o(.ccmram)
    STO_PLL_CalcAvrgElSpeedDpp               0x080003d3   Thumb Code    78  sto_pll_speed_pos_fdbk.o(.ccmram)
    STO_ResetPLL                             0x08000421   Thumb Code     8  sto_pll_speed_pos_fdbk.o(.ccmram)
    Reset_Handler                            0x08000429   Thumb Code     8  startup_stm32g431xx.o(.text)
    NMI_Handler                              0x08000431   Thumb Code     2  startup_stm32g431xx.o(.text)
    MemManage_Handler                        0x08000435   Thumb Code     2  startup_stm32g431xx.o(.text)
    BusFault_Handler                         0x08000437   Thumb Code     2  startup_stm32g431xx.o(.text)
    UsageFault_Handler                       0x08000439   Thumb Code     2  startup_stm32g431xx.o(.text)
    SVC_Handler                              0x0800043b   Thumb Code     2  startup_stm32g431xx.o(.text)
    DebugMon_Handler                         0x0800043d   Thumb Code     2  startup_stm32g431xx.o(.text)
    PendSV_Handler                           0x0800043f   Thumb Code     2  startup_stm32g431xx.o(.text)
    COMP1_2_3_IRQHandler                     0x08000443   Thumb Code     0  startup_stm32g431xx.o(.text)
    COMP4_IRQHandler                         0x08000443   Thumb Code     0  startup_stm32g431xx.o(.text)
    CORDIC_IRQHandler                        0x08000443   Thumb Code     0  startup_stm32g431xx.o(.text)
    CRS_IRQHandler                           0x08000443   Thumb Code     0  startup_stm32g431xx.o(.text)
    DMA1_Channel2_IRQHandler                 0x08000443   Thumb Code     0  startup_stm32g431xx.o(.text)
    DMA1_Channel3_IRQHandler                 0x08000443   Thumb Code     0  startup_stm32g431xx.o(.text)
    DMA1_Channel4_IRQHandler                 0x08000443   Thumb Code     0  startup_stm32g431xx.o(.text)
    DMA1_Channel5_IRQHandler                 0x08000443   Thumb Code     0  startup_stm32g431xx.o(.text)
    DMA1_Channel6_IRQHandler                 0x08000443   Thumb Code     0  startup_stm32g431xx.o(.text)
    DMA2_Channel1_IRQHandler                 0x08000443   Thumb Code     0  startup_stm32g431xx.o(.text)
    DMA2_Channel2_IRQHandler                 0x08000443   Thumb Code     0  startup_stm32g431xx.o(.text)
    DMA2_Channel3_IRQHandler                 0x08000443   Thumb Code     0  startup_stm32g431xx.o(.text)
    DMA2_Channel4_IRQHandler                 0x08000443   Thumb Code     0  startup_stm32g431xx.o(.text)
    DMA2_Channel5_IRQHandler                 0x08000443   Thumb Code     0  startup_stm32g431xx.o(.text)
    DMA2_Channel6_IRQHandler                 0x08000443   Thumb Code     0  startup_stm32g431xx.o(.text)
    DMAMUX_OVR_IRQHandler                    0x08000443   Thumb Code     0  startup_stm32g431xx.o(.text)
    EXTI0_IRQHandler                         0x08000443   Thumb Code     0  startup_stm32g431xx.o(.text)
    EXTI1_IRQHandler                         0x08000443   Thumb Code     0  startup_stm32g431xx.o(.text)
    EXTI2_IRQHandler                         0x08000443   Thumb Code     0  startup_stm32g431xx.o(.text)
    EXTI3_IRQHandler                         0x08000443   Thumb Code     0  startup_stm32g431xx.o(.text)
    EXTI4_IRQHandler                         0x08000443   Thumb Code     0  startup_stm32g431xx.o(.text)
    EXTI9_5_IRQHandler                       0x08000443   Thumb Code     0  startup_stm32g431xx.o(.text)
    FDCAN1_IT0_IRQHandler                    0x08000443   Thumb Code     0  startup_stm32g431xx.o(.text)
    FDCAN1_IT1_IRQHandler                    0x08000443   Thumb Code     0  startup_stm32g431xx.o(.text)
    FLASH_IRQHandler                         0x08000443   Thumb Code     0  startup_stm32g431xx.o(.text)
    FMAC_IRQHandler                          0x08000443   Thumb Code     0  startup_stm32g431xx.o(.text)
    FPU_IRQHandler                           0x08000443   Thumb Code     0  startup_stm32g431xx.o(.text)
    I2C1_ER_IRQHandler                       0x08000443   Thumb Code     0  startup_stm32g431xx.o(.text)
    I2C1_EV_IRQHandler                       0x08000443   Thumb Code     0  startup_stm32g431xx.o(.text)
    I2C2_ER_IRQHandler                       0x08000443   Thumb Code     0  startup_stm32g431xx.o(.text)
    I2C2_EV_IRQHandler                       0x08000443   Thumb Code     0  startup_stm32g431xx.o(.text)
    I2C3_ER_IRQHandler                       0x08000443   Thumb Code     0  startup_stm32g431xx.o(.text)
    I2C3_EV_IRQHandler                       0x08000443   Thumb Code     0  startup_stm32g431xx.o(.text)
    LPTIM1_IRQHandler                        0x08000443   Thumb Code     0  startup_stm32g431xx.o(.text)
    LPUART1_IRQHandler                       0x08000443   Thumb Code     0  startup_stm32g431xx.o(.text)
    PVD_PVM_IRQHandler                       0x08000443   Thumb Code     0  startup_stm32g431xx.o(.text)
    RCC_IRQHandler                           0x08000443   Thumb Code     0  startup_stm32g431xx.o(.text)
    RNG_IRQHandler                           0x08000443   Thumb Code     0  startup_stm32g431xx.o(.text)
    RTC_Alarm_IRQHandler                     0x08000443   Thumb Code     0  startup_stm32g431xx.o(.text)
    RTC_TAMP_LSECSS_IRQHandler               0x08000443   Thumb Code     0  startup_stm32g431xx.o(.text)
    RTC_WKUP_IRQHandler                      0x08000443   Thumb Code     0  startup_stm32g431xx.o(.text)
    SAI1_IRQHandler                          0x08000443   Thumb Code     0  startup_stm32g431xx.o(.text)
    SPI1_IRQHandler                          0x08000443   Thumb Code     0  startup_stm32g431xx.o(.text)
    SPI2_IRQHandler                          0x08000443   Thumb Code     0  startup_stm32g431xx.o(.text)
    SPI3_IRQHandler                          0x08000443   Thumb Code     0  startup_stm32g431xx.o(.text)
    TIM1_CC_IRQHandler                       0x08000443   Thumb Code     0  startup_stm32g431xx.o(.text)
    TIM1_TRG_COM_TIM17_IRQHandler            0x08000443   Thumb Code     0  startup_stm32g431xx.o(.text)
    TIM2_IRQHandler                          0x08000443   Thumb Code     0  startup_stm32g431xx.o(.text)
    TIM3_IRQHandler                          0x08000443   Thumb Code     0  startup_stm32g431xx.o(.text)
    TIM4_IRQHandler                          0x08000443   Thumb Code     0  startup_stm32g431xx.o(.text)
    TIM6_DAC_IRQHandler                      0x08000443   Thumb Code     0  startup_stm32g431xx.o(.text)
    TIM7_DAC_IRQHandler                      0x08000443   Thumb Code     0  startup_stm32g431xx.o(.text)
    TIM8_BRK_IRQHandler                      0x08000443   Thumb Code     0  startup_stm32g431xx.o(.text)
    TIM8_CC_IRQHandler                       0x08000443   Thumb Code     0  startup_stm32g431xx.o(.text)
    TIM8_TRG_COM_IRQHandler                  0x08000443   Thumb Code     0  startup_stm32g431xx.o(.text)
    TIM8_UP_IRQHandler                       0x08000443   Thumb Code     0  startup_stm32g431xx.o(.text)
    UART4_IRQHandler                         0x08000443   Thumb Code     0  startup_stm32g431xx.o(.text)
    UCPD1_IRQHandler                         0x08000443   Thumb Code     0  startup_stm32g431xx.o(.text)
    USART1_IRQHandler                        0x08000443   Thumb Code     0  startup_stm32g431xx.o(.text)
    USART3_IRQHandler                        0x08000443   Thumb Code     0  startup_stm32g431xx.o(.text)
    USBWakeUp_IRQHandler                     0x08000443   Thumb Code     0  startup_stm32g431xx.o(.text)
    USB_HP_IRQHandler                        0x08000443   Thumb Code     0  startup_stm32g431xx.o(.text)
    USB_LP_IRQHandler                        0x08000443   Thumb Code     0  startup_stm32g431xx.o(.text)
    WWDG_IRQHandler                          0x08000443   Thumb Code     0  startup_stm32g431xx.o(.text)
    RUC_Init                                 0x0800044d   Thumb Code    86  revup_ctrl.o(.text)
    RUC_Clear                                0x080004a3   Thumb Code   136  revup_ctrl.o(.text)
    RUC_OTF_Exec                             0x0800052b   Thumb Code   508  revup_ctrl.o(.text)
    RUC_Exec                                 0x08000727   Thumb Code   106  revup_ctrl.o(.text)
    RUC_Completed                            0x08000791   Thumb Code    14  revup_ctrl.o(.text)
    RUC_Stop                                 0x0800079f   Thumb Code    30  revup_ctrl.o(.text)
    RUC_SetPhaseDurationms                   0x080007bd   Thumb Code    12  revup_ctrl.o(.text)
    RUC_SetPhaseFinalMecSpeedUnit            0x080007c9   Thumb Code    12  revup_ctrl.o(.text)
    RUC_SetPhaseFinalTorque                  0x080007d5   Thumb Code    12  revup_ctrl.o(.text)
    RUC_GetPhaseDurationms                   0x080007e1   Thumb Code    12  revup_ctrl.o(.text)
    RUC_GetPhaseFinalMecSpeedUnit            0x080007ed   Thumb Code    14  revup_ctrl.o(.text)
    RUC_GetPhaseFinalTorque                  0x080007fb   Thumb Code    14  revup_ctrl.o(.text)
    RUC_GetNumberOfPhases                    0x08000809   Thumb Code     6  revup_ctrl.o(.text)
    RUC_Get_SCLowsideOTF_Status              0x0800080f   Thumb Code     6  revup_ctrl.o(.text)
    STO_PLL_Clear                            0x08000815   Thumb Code   124  sto_pll_speed_pos_fdbk.o(.text)
    STO_PLL_Init                             0x08000891   Thumb Code    90  sto_pll_speed_pos_fdbk.o(.text)
    STO_PLL_Return                           0x080008eb   Thumb Code     2  sto_pll_speed_pos_fdbk.o(.text)
    STO_PLL_CalcAvrgMecSpeedUnit             0x080008ed   Thumb Code   318  sto_pll_speed_pos_fdbk.o(.text)
    STO_PLL_IsObserverConverged              0x08000a2b   Thumb Code   166  sto_pll_speed_pos_fdbk.o(.text)
    STO_PLL_GetEstimatedBemf                 0x08000ad1   Thumb Code    20  sto_pll_speed_pos_fdbk.o(.text)
    STO_PLL_GetEstimatedCurrent              0x08000ae5   Thumb Code    24  sto_pll_speed_pos_fdbk.o(.text)
    STO_PLL_GetObserverGains                 0x08000afd   Thumb Code    10  sto_pll_speed_pos_fdbk.o(.text)
    STO_PLL_SetObserverGains                 0x08000b07   Thumb Code     6  sto_pll_speed_pos_fdbk.o(.text)
    STO_GetPLLGains                          0x08000b0d   Thumb Code    28  sto_pll_speed_pos_fdbk.o(.text)
    STO_SetPLLGains                          0x08000b29   Thumb Code    26  sto_pll_speed_pos_fdbk.o(.text)
    STO_PLL_SetMecAngle                      0x08000b43   Thumb Code     2  sto_pll_speed_pos_fdbk.o(.text)
    STO_OTF_ResetPLL                         0x08000b45   Thumb Code    10  sto_pll_speed_pos_fdbk.o(.text)
    STO_SetPLL                               0x08000b4f   Thumb Code    30  sto_pll_speed_pos_fdbk.o(.text)
    STO_PLL_GetEstimatedBemfLevel            0x08000b6d   Thumb Code     6  sto_pll_speed_pos_fdbk.o(.text)
    STO_PLL_GetObservedBemfLevel             0x08000b73   Thumb Code     6  sto_pll_speed_pos_fdbk.o(.text)
    STO_PLL_BemfConsistencyCheckSwitch       0x08000b79   Thumb Code     6  sto_pll_speed_pos_fdbk.o(.text)
    STO_PLL_IsBemfConsistent                 0x08000b7f   Thumb Code     6  sto_pll_speed_pos_fdbk.o(.text)
    STO_PLL_IsVarianceTight                  0x08000b85   Thumb Code     8  sto_pll_speed_pos_fdbk.o(.text)
    STO_PLL_ForceConvergency1                0x08000b8d   Thumb Code    10  sto_pll_speed_pos_fdbk.o(.text)
    STO_PLL_ForceConvergency2                0x08000b97   Thumb Code    10  sto_pll_speed_pos_fdbk.o(.text)
    STO_SetMinStartUpValidSpeedUnit          0x08000ba1   Thumb Code     6  sto_pll_speed_pos_fdbk.o(.text)
    __aeabi_uldivmod                         0x08000bad   Thumb Code    98  uldiv.o(.text)
    __aeabi_memset                           0x08000c0f   Thumb Code    14  memseta.o(.text)
    __aeabi_memset4                          0x08000c0f   Thumb Code     0  memseta.o(.text)
    __aeabi_memset8                          0x08000c0f   Thumb Code     0  memseta.o(.text)
    __aeabi_memclr                           0x08000c1d   Thumb Code     4  memseta.o(.text)
    __aeabi_memclr4                          0x08000c1d   Thumb Code     0  memseta.o(.text)
    __aeabi_memclr8                          0x08000c1d   Thumb Code     0  memseta.o(.text)
    _memset$wrapper                          0x08000c21   Thumb Code    18  memseta.o(.text)
    __aeabi_llsl                             0x08000c33   Thumb Code    30  llshl.o(.text)
    _ll_shift_l                              0x08000c33   Thumb Code     0  llshl.o(.text)
    __aeabi_llsr                             0x08000c51   Thumb Code    32  llushr.o(.text)
    _ll_ushift_r                             0x08000c51   Thumb Code     0  llushr.o(.text)
    __scatterload                            0x08000c71   Thumb Code    28  init.o(.text)
    __scatterload_rt2                        0x08000c71   Thumb Code     0  init.o(.text)
    __decompress                             0x08000c95   Thumb Code     0  __dczerorl2.o(.text)
    __decompress1                            0x08000c95   Thumb Code    86  __dczerorl2.o(.text)
    ADC1_2_IRQHandler                        0x08000ceb   Thumb Code    12  stm32g4xx_mc_it.o(i.ADC1_2_IRQHandler)
    Circle_Limitation                        0x08000cf7   Thumb Code    86  circle_limitation.o(i.Circle_Limitation)
    DMA1_Channel1_IRQHandler                 0x08000d4d   Thumb Code    28  stm32g4xx_mc_it.o(i.DMA1_Channel1_IRQHandler)
    EXTI15_10_IRQHandler                     0x08000d71   Thumb Code    22  stm32g4xx_mc_it.o(i.EXTI15_10_IRQHandler)
    Error_Handler                            0x08000d8d   Thumb Code     2  main.o(i.Error_Handler)
    FCP_CalcCRC                              0x08000d8f   Thumb Code    46  frame_communication_protocol.o(i.FCP_CalcCRC)
    FCP_Init                                 0x08000dbd   Thumb Code    42  frame_communication_protocol.o(i.FCP_Init)
    FCP_SetClient                            0x08000de7   Thumb Code    14  frame_communication_protocol.o(i.FCP_SetClient)
    FOC_CalcCurrRef                          0x08000df5   Thumb Code    42  mc_tasks.o(i.FOC_CalcCurrRef)
    FOC_Clear                                0x08000e29   Thumb Code    86  mc_tasks.o(i.FOC_Clear)
    FOC_InitAdditionalMethods                0x08000e95   Thumb Code     2  mc_tasks.o(i.FOC_InitAdditionalMethods)
    HAL_ADCEx_InjectedConfigChannel          0x08000e99   Thumb Code  1488  stm32g4xx_hal_adc_ex.o(i.HAL_ADCEx_InjectedConfigChannel)
    HAL_ADCEx_MultiModeConfigChannel         0x08001485   Thumb Code   216  stm32g4xx_hal_adc_ex.o(i.HAL_ADCEx_MultiModeConfigChannel)
    HAL_ADC_ConfigChannel                    0x08001565   Thumb Code  1196  stm32g4xx_hal_adc.o(i.HAL_ADC_ConfigChannel)
    HAL_ADC_Init                             0x08001a35   Thumb Code   550  stm32g4xx_hal_adc.o(i.HAL_ADC_Init)
    HAL_ADC_MspInit                          0x08001c71   Thumb Code   116  stm32g4xx_hal_msp.o(i.HAL_ADC_MspInit)
    HAL_CORDIC_Init                          0x08001ced   Thumb Code    52  stm32g4xx_hal_cordic.o(i.HAL_CORDIC_Init)
    HAL_CORDIC_MspInit                       0x08001d21   Thumb Code    40  stm32g4xx_hal_msp.o(i.HAL_CORDIC_MspInit)
    HAL_DMA_Init                             0x08001d4d   Thumb Code   252  stm32g4xx_hal_dma.o(i.HAL_DMA_Init)
    HAL_GPIO_Init                            0x08001e75   Thumb Code   528  stm32g4xx_hal_gpio.o(i.HAL_GPIO_Init)
    HAL_GPIO_WritePin                        0x08002099   Thumb Code    10  stm32g4xx_hal_gpio.o(i.HAL_GPIO_WritePin)
    HAL_GetTick                              0x080020a5   Thumb Code     6  stm32g4xx_hal.o(i.HAL_GetTick)
    HAL_IncTick                              0x080020b1   Thumb Code    12  stm32g4xx_hal.o(i.HAL_IncTick)
    HAL_Init                                 0x080020c1   Thumb Code    30  stm32g4xx_hal.o(i.HAL_Init)
    HAL_InitTick                             0x080020e1   Thumb Code    58  stm32g4xx_hal.o(i.HAL_InitTick)
    HAL_MspInit                              0x08002125   Thumb Code    54  stm32g4xx_hal_msp.o(i.HAL_MspInit)
    HAL_NVIC_EnableIRQ                       0x08002165   Thumb Code    30  stm32g4xx_hal_cortex.o(i.HAL_NVIC_EnableIRQ)
    HAL_NVIC_SetPriority                     0x08002185   Thumb Code    96  stm32g4xx_hal_cortex.o(i.HAL_NVIC_SetPriority)
    HAL_NVIC_SetPriorityGrouping             0x080021e9   Thumb Code    30  stm32g4xx_hal_cortex.o(i.HAL_NVIC_SetPriorityGrouping)
    HAL_PWREx_ControlVoltageScaling          0x0800220d   Thumb Code   180  stm32g4xx_hal_pwr_ex.o(i.HAL_PWREx_ControlVoltageScaling)
    HAL_RCCEx_PeriphCLKConfig                0x080022cd   Thumb Code   700  stm32g4xx_hal_rcc_ex.o(i.HAL_RCCEx_PeriphCLKConfig)
    HAL_RCC_ClockConfig                      0x08002591   Thumb Code   488  stm32g4xx_hal_rcc.o(i.HAL_RCC_ClockConfig)
    HAL_RCC_EnableCSS                        0x08002799   Thumb Code    12  stm32g4xx_hal_rcc.o(i.HAL_RCC_EnableCSS)
    HAL_RCC_GetHCLKFreq                      0x080027a9   Thumb Code     6  stm32g4xx_hal_rcc.o(i.HAL_RCC_GetHCLKFreq)
    HAL_RCC_GetPCLK1Freq                     0x080027b5   Thumb Code    24  stm32g4xx_hal_rcc.o(i.HAL_RCC_GetPCLK1Freq)
    HAL_RCC_GetPCLK2Freq                     0x080027d9   Thumb Code    24  stm32g4xx_hal_rcc.o(i.HAL_RCC_GetPCLK2Freq)
    HAL_RCC_GetSysClockFreq                  0x080027fd   Thumb Code   100  stm32g4xx_hal_rcc.o(i.HAL_RCC_GetSysClockFreq)
    HAL_RCC_OscConfig                        0x0800286d   Thumb Code  1226  stm32g4xx_hal_rcc.o(i.HAL_RCC_OscConfig)
    HAL_SYSTICK_Callback                     0x08002d37   Thumb Code     2  stm32g4xx_hal_cortex.o(i.HAL_SYSTICK_Callback)
    HAL_SYSTICK_Config                       0x08002d39   Thumb Code    38  stm32g4xx_hal_cortex.o(i.HAL_SYSTICK_Config)
    HAL_SYSTICK_IRQHandler                   0x08002d65   Thumb Code     8  stm32g4xx_hal_cortex.o(i.HAL_SYSTICK_IRQHandler)
    HAL_TIMEx_ConfigBreakDeadTime            0x08002d6d   Thumb Code   178  stm32g4xx_hal_tim_ex.o(i.HAL_TIMEx_ConfigBreakDeadTime)
    HAL_TIMEx_ConfigBreakInput               0x08002e29   Thumb Code   220  stm32g4xx_hal_tim_ex.o(i.HAL_TIMEx_ConfigBreakInput)
    HAL_TIMEx_MasterConfigSynchronization    0x08002f05   Thumb Code   104  stm32g4xx_hal_tim_ex.o(i.HAL_TIMEx_MasterConfigSynchronization)
    HAL_TIM_Base_Init                        0x08002f6d   Thumb Code    54  stm32g4xx_hal_tim.o(i.HAL_TIM_Base_Init)
    HAL_TIM_Base_MspInit                     0x08002fa5   Thumb Code   152  stm32g4xx_hal_msp.o(i.HAL_TIM_Base_MspInit)
    HAL_TIM_MspPostInit                      0x08003049   Thumb Code   142  stm32g4xx_hal_msp.o(i.HAL_TIM_MspPostInit)
    HAL_TIM_PWM_ConfigChannel                0x080030e1   Thumb Code   860  stm32g4xx_hal_tim.o(i.HAL_TIM_PWM_ConfigChannel)
    HAL_TIM_PWM_Init                         0x08003451   Thumb Code    54  stm32g4xx_hal_tim.o(i.HAL_TIM_PWM_Init)
    HAL_TIM_PWM_MspInit                      0x08003487   Thumb Code     2  stm32g4xx_hal_tim.o(i.HAL_TIM_PWM_MspInit)
    HAL_TIM_SlaveConfigSynchro               0x08003489   Thumb Code    86  stm32g4xx_hal_tim.o(i.HAL_TIM_SlaveConfigSynchro)
    HAL_UARTEx_DisableFifoMode               0x080034df   Thumb Code    62  stm32g4xx_hal_uart_ex.o(i.HAL_UARTEx_DisableFifoMode)
    HAL_UARTEx_EnableFifoMode                0x0800351d   Thumb Code   166  stm32g4xx_hal_uart_ex.o(i.HAL_UARTEx_EnableFifoMode)
    HAL_UARTEx_SetRxFifoThreshold            0x080035d5   Thumb Code   162  stm32g4xx_hal_uart_ex.o(i.HAL_UARTEx_SetRxFifoThreshold)
    HAL_UARTEx_SetTxFifoThreshold            0x08003681   Thumb Code   162  stm32g4xx_hal_uart_ex.o(i.HAL_UARTEx_SetTxFifoThreshold)
    HAL_UART_Init                            0x0800372d   Thumb Code   110  stm32g4xx_hal_uart.o(i.HAL_UART_Init)
    HAL_UART_MspInit                         0x0800379d   Thumb Code    92  stm32g4xx_hal_msp.o(i.HAL_UART_MspInit)
    HardFault_Handler                        0x080037fd   Thumb Code    98  stm32g4xx_mc_it.o(i.HardFault_Handler)
    MCI_Clear_Iqdref                         0x080038d9   Thumb Code    16  mc_interface.o(i.MCI_Clear_Iqdref)
    MCI_EncoderAlign                         0x080038e9   Thumb Code     8  mc_interface.o(i.MCI_EncoderAlign)
    MCI_ExecBufferedCommands                 0x080038f1   Thumb Code   120  mc_interface.o(i.MCI_ExecBufferedCommands)
    MCI_ExecSpeedRamp                        0x08003969   Thumb Code    14  mc_interface.o(i.MCI_ExecSpeedRamp)
    MCI_ExecTorqueRamp                       0x08003977   Thumb Code    18  mc_interface.o(i.MCI_ExecTorqueRamp)
    MCI_FaultAcknowledged                    0x08003989   Thumb Code     6  mc_interface.o(i.MCI_FaultAcknowledged)
    MCI_GetAvrgMecSpeedUnit                  0x0800398f   Thumb Code    16  mc_interface.o(i.MCI_GetAvrgMecSpeedUnit)
    MCI_GetControlMode                       0x0800399f   Thumb Code     4  mc_interface.o(i.MCI_GetControlMode)
    MCI_GetIab                               0x080039a3   Thumb Code     6  mc_interface.o(i.MCI_GetIab)
    MCI_GetIalphabeta                        0x080039a9   Thumb Code     6  mc_interface.o(i.MCI_GetIalphabeta)
    MCI_GetImposedMotorDirection             0x080039af   Thumb Code    54  mc_interface.o(i.MCI_GetImposedMotorDirection)
    MCI_GetIqd                               0x080039e5   Thumb Code     6  mc_interface.o(i.MCI_GetIqd)
    MCI_GetIqdref                            0x080039eb   Thumb Code     6  mc_interface.o(i.MCI_GetIqdref)
    MCI_GetLastRampFinalSpeed                0x080039f1   Thumb Code    16  mc_interface.o(i.MCI_GetLastRampFinalSpeed)
    MCI_GetMecSpeedRefUnit                   0x08003a01   Thumb Code     6  mc_interface.o(i.MCI_GetMecSpeedRefUnit)
    MCI_GetSTMState                          0x08003a07   Thumb Code     6  mc_interface.o(i.MCI_GetSTMState)
    MCI_GetTeref                             0x08003a0d   Thumb Code     8  mc_interface.o(i.MCI_GetTeref)
    MCI_GetValphabeta                        0x08003a15   Thumb Code     8  mc_interface.o(i.MCI_GetValphabeta)
    MCI_GetVqd                               0x08003a1d   Thumb Code     8  mc_interface.o(i.MCI_GetVqd)
    MCI_Init                                 0x08003a25   Thumb Code    20  mc_interface.o(i.MCI_Init)
    MCI_SetCurrentReferences                 0x08003a39   Thumb Code    20  mc_interface.o(i.MCI_SetCurrentReferences)
    MCI_SetIdref                             0x08003a4d   Thumb Code    10  mc_interface.o(i.MCI_SetIdref)
    MCI_StartMotor                           0x08003a57   Thumb Code    22  mc_interface.o(i.MCI_StartMotor)
    MCI_StopMotor                            0x08003a6d   Thumb Code     8  mc_interface.o(i.MCI_StopMotor)
    MCI_StopRamp                             0x08003a75   Thumb Code     6  mc_interface.o(i.MCI_StopRamp)
    MCM_Clarke                               0x08003a7d   Thumb Code    72  mc_math.o(i.MCM_Clarke)
    MCM_Park                                 0x08003ac9   Thumb Code   122  mc_math.o(i.MCM_Park)
    MCM_Rev_Park                             0x08003b4d   Thumb Code    54  mc_math.o(i.MCM_Rev_Park)
    MCM_Trig_Functions                       0x08003b85   Thumb Code    16  mc_math.o(i.MCM_Trig_Functions)
    MCP_Init                                 0x08003b9d   Thumb Code    50  motor_control_protocol.o(i.MCP_Init)
    MCP_OnTimeOut                            0x08003bdd   Thumb Code     8  motor_control_protocol.o(i.MCP_OnTimeOut)
    MCP_ReceivedFrame                        0x08003be5   Thumb Code  1628  motor_control_protocol.o(i.MCP_ReceivedFrame)
    MCP_SentFrame                            0x0800424d   Thumb Code     8  motor_control_protocol.o(i.MCP_SentFrame)
    MCP_WaitNextFrame                        0x08004255   Thumb Code    26  motor_control_protocol.o(i.MCP_WaitNextFrame)
    MC_GetSTMStateMotor1                     0x08004271   Thumb Code     8  mc_api.o(i.MC_GetSTMStateMotor1)
    MC_RunMotorControlTasks                  0x0800427d   Thumb Code    28  mc_tasks.o(i.MC_RunMotorControlTasks)
    MC_Scheduler                             0x0800429d   Thumb Code    58  mc_tasks.o(i.MC_Scheduler)
    MC_StartMotor1                           0x080042dd   Thumb Code     8  mc_api.o(i.MC_StartMotor1)
    MC_StopMotor1                            0x080042e9   Thumb Code     8  mc_api.o(i.MC_StopMotor1)
    MCboot                                   0x080042f5   Thumb Code   366  mc_tasks.o(i.MCboot)
    MPM_CalcElMotorPower                     0x080044ad   Thumb Code    70  motor_power_measurement.o(i.MPM_CalcElMotorPower)
    MPM_Clear                                0x080044f3   Thumb Code    26  motor_power_measurement.o(i.MPM_Clear)
    MPM_GetAvrgElMotorPowerW                 0x0800450d   Thumb Code     6  motor_power_measurement.o(i.MPM_GetAvrgElMotorPowerW)
    MX_MotorControl_Init                     0x08004515   Thumb Code    48  motorcontrol.o(i.MX_MotorControl_Init)
    NTC_CalcAvTemp                           0x0800454d   Thumb Code    58  ntc_temperature_sensor.o(i.NTC_CalcAvTemp)
    NTC_Clear                                0x08004587   Thumb Code     6  ntc_temperature_sensor.o(i.NTC_Clear)
    NTC_GetAvTemp_C                          0x0800458d   Thumb Code    40  ntc_temperature_sensor.o(i.NTC_GetAvTemp_C)
    NTC_Init                                 0x080045b5   Thumb Code    36  ntc_temperature_sensor.o(i.NTC_Init)
    NTC_SetFaultState                        0x080045d9   Thumb Code    24  ntc_temperature_sensor.o(i.NTC_SetFaultState)
    PID_GetKD                                0x080045f1   Thumb Code     6  pid_regulator.o(i.PID_GetKD)
    PID_GetKI                                0x080045f7   Thumb Code     6  pid_regulator.o(i.PID_GetKI)
    PID_GetKIDivisor                         0x080045fd   Thumb Code     4  pid_regulator.o(i.PID_GetKIDivisor)
    PID_GetKP                                0x08004601   Thumb Code     6  pid_regulator.o(i.PID_GetKP)
    PID_GetKPDivisor                         0x08004607   Thumb Code     4  pid_regulator.o(i.PID_GetKPDivisor)
    PID_HandleInit                           0x0800460b   Thumb Code    20  pid_regulator.o(i.PID_HandleInit)
    PID_SetIntegralTerm                      0x0800461f   Thumb Code     4  pid_regulator.o(i.PID_SetIntegralTerm)
    PID_SetKD                                0x08004623   Thumb Code     4  pid_regulator.o(i.PID_SetKD)
    PID_SetKI                                0x08004627   Thumb Code     4  pid_regulator.o(i.PID_SetKI)
    PID_SetKP                                0x0800462b   Thumb Code     4  pid_regulator.o(i.PID_SetKP)
    PI_Controller                            0x08004631   Thumb Code   122  pid_regulator.o(i.PI_Controller)
    PQD_CalcElMotorPower                     0x080046b1   Thumb Code    90  pqd_motor_power_measurement.o(i.PQD_CalcElMotorPower)
    PWMC_CheckOverCurrent                    0x08004711   Thumb Code     4  pwm_curr_fdbk.o(i.PWMC_CheckOverCurrent)
    PWMC_CurrentReadingCalibr                0x08004715   Thumb Code    66  pwm_curr_fdbk.o(i.PWMC_CurrentReadingCalibr)
    PWMC_GetPhaseCurrents                    0x08004757   Thumb Code     4  pwm_curr_fdbk.o(i.PWMC_GetPhaseCurrents)
    PWMC_SetPhaseVoltage                     0x0800475b   Thumb Code   474  pwm_curr_fdbk.o(i.PWMC_SetPhaseVoltage)
    PWMC_SwitchOffPWM                        0x08004935   Thumb Code     4  pwm_curr_fdbk.o(i.PWMC_SwitchOffPWM)
    PWMC_SwitchOnPWM                         0x08004939   Thumb Code     4  pwm_curr_fdbk.o(i.PWMC_SwitchOnPWM)
    PWMC_TurnOnLowSides                      0x0800493d   Thumb Code     4  pwm_curr_fdbk.o(i.PWMC_TurnOnLowSides)
    R1_1ShuntMotorVarsInit                   0x08004941   Thumb Code    78  r1_g4xx_pwm_curr_fdbk.o(i.R1_1ShuntMotorVarsInit)
    R1_BRK2_IRQHandler                       0x0800498f   Thumb Code    54  r1_g4xx_pwm_curr_fdbk.o(i.R1_BRK2_IRQHandler)
    R1_BRK_IRQHandler                        0x080049c5   Thumb Code    28  r1_g4xx_pwm_curr_fdbk.o(i.R1_BRK_IRQHandler)
    R1_CalcDutyCycles                        0x080049e1   Thumb Code   806  r1_g4xx_pwm_curr_fdbk.o(i.R1_CalcDutyCycles)
    R1_CurrentReadingPolarization            0x08004d1d   Thumb Code   104  r1_g4xx_pwm_curr_fdbk.o(i.R1_CurrentReadingPolarization)
    R1_GetPhaseCurrents                      0x08004d95   Thumb Code   346  r1_g4xx_pwm_curr_fdbk.o(i.R1_GetPhaseCurrents)
    R1_HFCurrentsPolarization                0x08004ef5   Thumb Code    50  r1_g4xx_pwm_curr_fdbk.o(i.R1_HFCurrentsPolarization)
    R1_Init                                  0x08004f29   Thumb Code   984  r1_g4xx_pwm_curr_fdbk.o(i.R1_Init)
    R1_IsOverCurrentOccurred                 0x08005339   Thumb Code    38  r1_g4xx_pwm_curr_fdbk.o(i.R1_IsOverCurrentOccurred)
    R1_SetADCSampPointPolarization           0x0800535f   Thumb Code    40  r1_g4xx_pwm_curr_fdbk.o(i.R1_SetADCSampPointPolarization)
    R1_SetAOReferenceVoltage                 0x08005389   Thumb Code   100  r1_g4xx_pwm_curr_fdbk.o(i.R1_SetAOReferenceVoltage)
    R1_SwitchOffPWM                          0x080053f5   Thumb Code   132  r1_g4xx_pwm_curr_fdbk.o(i.R1_SwitchOffPWM)
    R1_SwitchOnPWM                           0x08005479   Thumb Code   234  r1_g4xx_pwm_curr_fdbk.o(i.R1_SwitchOnPWM)
    R1_TIMxInit                              0x08005563   Thumb Code   220  r1_g4xx_pwm_curr_fdbk.o(i.R1_TIMxInit)
    R1_TIMx_UP_IRQHandler                    0x08005641   Thumb Code   214  r1_g4xx_pwm_curr_fdbk.o(i.R1_TIMx_UP_IRQHandler)
    R1_TurnOnLowSides                        0x0800571d   Thumb Code    82  r1_g4xx_pwm_curr_fdbk.o(i.R1_TurnOnLowSides)
    RCM_ExecNextConv                         0x08005771   Thumb Code   130  regular_conversion_manager.o(i.RCM_ExecNextConv)
    RCM_ExecRegularConv                      0x08005805   Thumb Code   302  regular_conversion_manager.o(i.RCM_ExecRegularConv)
    RCM_ExecUserConv                         0x08005949   Thumb Code    60  regular_conversion_manager.o(i.RCM_ExecUserConv)
    RCM_ReadOngoingConv                      0x0800598d   Thumb Code    42  regular_conversion_manager.o(i.RCM_ReadOngoingConv)
    RCM_RegisterRegConv                      0x080059c5   Thumb Code   288  regular_conversion_manager.o(i.RCM_RegisterRegConv)
    REMNG_Calc                               0x08005af5   Thumb Code    44  ramp_ext_mngr.o(i.REMNG_Calc)
    REMNG_ExecRamp                           0x08005b21   Thumb Code   130  ramp_ext_mngr.o(i.REMNG_ExecRamp)
    REMNG_Init                               0x08005ba3   Thumb Code    16  ramp_ext_mngr.o(i.REMNG_Init)
    REMNG_RampCompleted                      0x08005bb3   Thumb Code    14  ramp_ext_mngr.o(i.REMNG_RampCompleted)
    RVBS_CalcAvVbus                          0x08005bc1   Thumb Code   100  r_divider_bus_voltage_sensor.o(i.RVBS_CalcAvVbus)
    RVBS_CheckFaultState                     0x08005c25   Thumb Code    24  r_divider_bus_voltage_sensor.o(i.RVBS_CheckFaultState)
    RVBS_Clear                               0x08005c3d   Thumb Code    44  r_divider_bus_voltage_sensor.o(i.RVBS_Clear)
    RVBS_Init                                0x08005c69   Thumb Code    22  r_divider_bus_voltage_sensor.o(i.RVBS_Init)
    SPD_GetAvrgMecSpeedUnit                  0x08005c7f   Thumb Code     6  speed_pos_fdbk.o(i.SPD_GetAvrgMecSpeedUnit)
    SPD_GetElAngle                           0x08005c85   Thumb Code     6  speed_pos_fdbk.o(i.SPD_GetElAngle)
    SPD_GetInstElSpeedDpp                    0x08005c8b   Thumb Code     6  speed_pos_fdbk.o(i.SPD_GetInstElSpeedDpp)
    SPD_GetS16Speed                          0x08005c91   Thumb Code    20  speed_pos_fdbk.o(i.SPD_GetS16Speed)
    SPD_IsMecSpeedReliable                   0x08005ca5   Thumb Code    96  speed_pos_fdbk.o(i.SPD_IsMecSpeedReliable)
    STC_CalcTorqueReference                  0x08005d05   Thumb Code    92  speed_torq_ctrl.o(i.STC_CalcTorqueReference)
    STC_Clear                                0x08005d61   Thumb Code    16  speed_torq_ctrl.o(i.STC_Clear)
    STC_ExecRamp                             0x08005d71   Thumb Code   146  speed_torq_ctrl.o(i.STC_ExecRamp)
    STC_ForceSpeedReferenceToCurrentSpeed    0x08005e03   Thumb Code    16  speed_torq_ctrl.o(i.STC_ForceSpeedReferenceToCurrentSpeed)
    STC_GetDefaultIqdref                     0x08005e13   Thumb Code    16  speed_torq_ctrl.o(i.STC_GetDefaultIqdref)
    STC_GetMaxAppPositiveMecSpeedUnit        0x08005e23   Thumb Code     4  speed_torq_ctrl.o(i.STC_GetMaxAppPositiveMecSpeedUnit)
    STC_GetMecSpeedRefUnit                   0x08005e27   Thumb Code    12  speed_torq_ctrl.o(i.STC_GetMecSpeedRefUnit)
    STC_GetMecSpeedRefUnitDefault            0x08005e33   Thumb Code     6  speed_torq_ctrl.o(i.STC_GetMecSpeedRefUnitDefault)
    STC_GetMinAppNegativeMecSpeedUnit        0x08005e39   Thumb Code     6  speed_torq_ctrl.o(i.STC_GetMinAppNegativeMecSpeedUnit)
    STC_GetSpeedSensor                       0x08005e3f   Thumb Code     4  speed_torq_ctrl.o(i.STC_GetSpeedSensor)
    STC_GetTorqueRef                         0x08005e43   Thumb Code    12  speed_torq_ctrl.o(i.STC_GetTorqueRef)
    STC_Init                                 0x08005e4f   Thumb Code    32  speed_torq_ctrl.o(i.STC_Init)
    STC_SetControlMode                       0x08005e6f   Thumb Code     8  speed_torq_ctrl.o(i.STC_SetControlMode)
    STC_SetSpeedSensor                       0x08005e77   Thumb Code     4  speed_torq_ctrl.o(i.STC_SetSpeedSensor)
    STC_StopRamp                             0x08005e7b   Thumb Code     8  speed_torq_ctrl.o(i.STC_StopRamp)
    STM_FaultAcknowledged                    0x08005e83   Thumb Code    22  state_machine.o(i.STM_FaultAcknowledged)
    STM_FaultProcessing                      0x08005e99   Thumb Code    54  state_machine.o(i.STM_FaultProcessing)
    STM_GetFaultState                        0x08005ecf   Thumb Code    10  state_machine.o(i.STM_GetFaultState)
    STM_GetState                             0x08005ed9   Thumb Code     4  state_machine.o(i.STM_GetState)
    STM_Init                                 0x08005edd   Thumb Code    10  state_machine.o(i.STM_Init)
    STM_NextState                            0x08005ee7   Thumb Code   254  state_machine.o(i.STM_NextState)
    SysTick_Handler                          0x08005fe5   Thumb Code    36  stm32g4xx_mc_it.o(i.SysTick_Handler)
    SystemInit                               0x0800600d   Thumb Code    20  system_stm32g4xx.o(i.SystemInit)
    TIM1_BRK_TIM15_IRQHandler                0x08006029   Thumb Code    54  stm32g4xx_mc_it.o(i.TIM1_BRK_TIM15_IRQHandler)
    TIM1_UP_TIM16_IRQHandler                 0x0800606d   Thumb Code    14  stm32g4xx_mc_it.o(i.TIM1_UP_TIM16_IRQHandler)
    TIM_Base_SetConfig                       0x08006085   Thumb Code   152  stm32g4xx_hal_tim.o(i.TIM_Base_SetConfig)
    TIM_OC2_SetConfig                        0x08006139   Thumb Code   136  stm32g4xx_hal_tim.o(i.TIM_OC2_SetConfig)
    TSK_ChargeBootCapDelayHasElapsedM1       0x080062c1   Thumb Code    14  mc_tasks.o(i.TSK_ChargeBootCapDelayHasElapsedM1)
    TSK_HardwareFaultTask                    0x080062d5   Thumb Code    24  mc_tasks.o(i.TSK_HardwareFaultTask)
    TSK_HighFrequencyTask                    0x080062f5   Thumb Code   316  mc_tasks.o(i.TSK_HighFrequencyTask)
    TSK_MediumFrequencyTaskM1                0x08006455   Thumb Code   624  mc_tasks.o(i.TSK_MediumFrequencyTaskM1)
    TSK_SafetyTask                           0x080066f1   Thumb Code    26  mc_tasks.o(i.TSK_SafetyTask)
    TSK_SafetyTask_PWMOFF                    0x08006711   Thumb Code   132  mc_tasks.o(i.TSK_SafetyTask_PWMOFF)
    TSK_SetChargeBootCapDelayM1              0x080067a9   Thumb Code     6  mc_tasks.o(i.TSK_SetChargeBootCapDelayM1)
    TSK_SetStopPermanencyTimeM1              0x080067b5   Thumb Code     6  mc_tasks.o(i.TSK_SetStopPermanencyTimeM1)
    TSK_StopPermanencyTimeHasElapsedM1       0x080067c1   Thumb Code    14  mc_tasks.o(i.TSK_StopPermanencyTimeHasElapsedM1)
    UART_AdvFeatureConfig                    0x080067d5   Thumb Code   218  stm32g4xx_hal_uart.o(i.UART_AdvFeatureConfig)
    UART_CheckIdleState                      0x080068af   Thumb Code    98  stm32g4xx_hal_uart.o(i.UART_CheckIdleState)
    UART_SetConfig                           0x08006911   Thumb Code  2226  stm32g4xx_hal_uart.o(i.UART_SetConfig)
    UART_WaitOnFlagUntilTimeout              0x080071c3   Thumb Code   118  stm32g4xx_hal_uart.o(i.UART_WaitOnFlagUntilTimeout)
    UFCP_AbortReceive                        0x08007239   Thumb Code     8  usart_frame_communication_protocol.o(i.UFCP_AbortReceive)
    UFCP_Init                                0x08007241   Thumb Code     4  usart_frame_communication_protocol.o(i.UFCP_Init)
    UFCP_OVR_IRQ_Handler                     0x08007245   Thumb Code    20  usart_frame_communication_protocol.o(i.UFCP_OVR_IRQ_Handler)
    UFCP_RX_IRQ_Handler                      0x08007259   Thumb Code   178  usart_frame_communication_protocol.o(i.UFCP_RX_IRQ_Handler)
    UFCP_Receive                             0x08007319   Thumb Code    40  usart_frame_communication_protocol.o(i.UFCP_Receive)
    UFCP_Send                                0x08007341   Thumb Code    86  usart_frame_communication_protocol.o(i.UFCP_Send)
    UFCP_TX_IRQ_Handler                      0x08007397   Thumb Code   100  usart_frame_communication_protocol.o(i.UFCP_TX_IRQ_Handler)
    UI_ExecCmd                               0x080073fb   Thumb Code   108  user_interface.o(i.UI_ExecCmd)
    UI_ExecSpeedRamp                         0x08007469   Thumb Code    42  user_interface.o(i.UI_ExecSpeedRamp)
    UI_ExecTorqueRamp                        0x08007499   Thumb Code    18  user_interface.o(i.UI_ExecTorqueRamp)
    UI_GetMPInfo                             0x080074ab   Thumb Code     4  user_interface.o(i.UI_GetMPInfo)
    UI_GetReg                                0x080074b1   Thumb Code  1356  user_interface.o(i.UI_GetReg)
    UI_GetRevupData                          0x08007a01   Thumb Code    72  user_interface.o(i.UI_GetRevupData)
    UI_GetSelectedMC                         0x08007a49   Thumb Code     4  user_interface.o(i.UI_GetSelectedMC)
    UI_HandleStartStopButton_cb              0x08007a4d   Thumb Code    24  ui_task.o(i.UI_HandleStartStopButton_cb)
    UI_Init                                  0x08007a65   Thumb Code    20  user_interface.o(i.UI_Init)
    UI_Scheduler                             0x08007a79   Thumb Code    40  ui_task.o(i.UI_Scheduler)
    UI_SelectMC                              0x08007aa5   Thumb Code    16  user_interface.o(i.UI_SelectMC)
    UI_SerialCommunicationTimeOutStart       0x08007ab5   Thumb Code     8  ui_task.o(i.UI_SerialCommunicationTimeOutStart)
    UI_SerialCommunicationTimeOutStop        0x08007ac1   Thumb Code     8  ui_task.o(i.UI_SerialCommunicationTimeOutStop)
    UI_SetCurrentReferences                  0x08007acd   Thumb Code    24  user_interface.o(i.UI_SetCurrentReferences)
    UI_SetReg                                0x08007ae5   Thumb Code   576  user_interface.o(i.UI_SetReg)
    UI_SetRevupData                          0x08007d29   Thumb Code    54  user_interface.o(i.UI_SetRevupData)
    UI_TaskInit                              0x08007d61   Thumb Code    82  ui_task.o(i.UI_TaskInit)
    USART2_IRQHandler                        0x08007dd1   Thumb Code   100  stm32g4xx_mc_it.o(i.USART2_IRQHandler)
    VBS_GetAvBusVoltage_V                    0x08007e39   Thumb Code    10  bus_voltage_sensor.o(i.VBS_GetAvBusVoltage_V)
    VBS_GetAvBusVoltage_d                    0x08007e43   Thumb Code     4  bus_voltage_sensor.o(i.VBS_GetAvBusVoltage_d)
    VSS_CalcAvrgMecSpeedUnit                 0x08007e47   Thumb Code   156  virtual_speed_sensor.o(i.VSS_CalcAvrgMecSpeedUnit)
    VSS_CalcElAngle                          0x08007ee3   Thumb Code   158  virtual_speed_sensor.o(i.VSS_CalcElAngle)
    VSS_Clear                                0x08007f81   Thumb Code    44  virtual_speed_sensor.o(i.VSS_Clear)
    VSS_Init                                 0x08007fad   Thumb Code     8  virtual_speed_sensor.o(i.VSS_Init)
    VSS_SetCopyObserver                      0x08007fb5   Thumb Code     8  virtual_speed_sensor.o(i.VSS_SetCopyObserver)
    VSS_SetMecAcceleration                   0x08007fbd   Thumb Code   124  virtual_speed_sensor.o(i.VSS_SetMecAcceleration)
    VSS_SetMecAngle                          0x08008039   Thumb Code    14  virtual_speed_sensor.o(i.VSS_SetMecAngle)
    VSS_SetStartTransition                   0x08008047   Thumb Code    28  virtual_speed_sensor.o(i.VSS_SetStartTransition)
    VSS_TransitionEnded                      0x08008063   Thumb Code     6  virtual_speed_sensor.o(i.VSS_TransitionEnded)
    __scatterload_copy                       0x08008069   Thumb Code    14  handlers.o(i.__scatterload_copy)
    __scatterload_null                       0x08008077   Thumb Code     2  handlers.o(i.__scatterload_null)
    __scatterload_zeroinit                   0x08008079   Thumb Code    14  handlers.o(i.__scatterload_zeroinit)
    getScalingFactor                         0x08008089   Thumb Code    40  ramp_ext_mngr.o(i.getScalingFactor)
    main                                     0x080080b1   Thumb Code   998  main.o(i.main)
    mc_lock_pins                             0x080084cd   Thumb Code   162  mc_tasks.o(i.mc_lock_pins)
    startTimers                              0x08008585   Thumb Code   100  pwm_common.o(i.startTimers)
    waitForPolarizationEnd                   0x080085f1   Thumb Code    98  pwm_common.o(i.waitForPolarizationEnd)
    s_fwVer                                  0x08008652   Data          32  motorcontrol.o(.constdata)
    R1_ParamsM1                              0x08008678   Data          80  mc_parameters.o(.constdata)
    AHBPrescTable                            0x080086c8   Data          16  system_stm32g4xx.o(.constdata)
    APBPrescTable                            0x080086d8   Data           8  system_stm32g4xx.o(.constdata)
    Region$$Table$$Base                      0x08008720   Number         0  anon$$obj.o(Region$$Table)
    Region$$Table$$Limit                     0x08008740   Number         0  anon$$obj.o(Region$$Table)
    wConfig                                  0x20000000   Data           4  motorcontrol.o(.data)
    pMCI                                     0x20000004   Data           4  motorcontrol.o(.data)
    pMCT                                     0x20000008   Data           4  motorcontrol.o(.data)
    MPInfo                                   0x2000000c   Data           8  motor_control_protocol.o(.data)
    PQD_MotorPowMeasM1                       0x20000014   Data         276  mc_config.o(.data)
    PIDSpeedHandle_M1                        0x20000128   Data          44  mc_config.o(.data)
    PIDIqHandle_M1                           0x20000154   Data          44  mc_config.o(.data)
    PIDIdHandle_M1                           0x20000180   Data          44  mc_config.o(.data)
    SpeednTorqCtrlM1                         0x200001ac   Data          52  mc_config.o(.data)
    RevUpControlM1                           0x200001e0   Data         120  mc_config.o(.data)
    PWM_Handle_M1                            0x20000258   Data         136  mc_config.o(.data)
    VirtualSpeedSensorM1                     0x200002e0   Data          56  mc_config.o(.data)
    STO_PLL_M1                               0x20000318   Data         296  mc_config.o(.data)
    STO_M1                                   0x20000440   Data          20  mc_config.o(.data)
    TempSensorParamsM1                       0x20000454   Data          40  mc_config.o(.data)
    RealBusVoltageSensorParamsM1             0x2000047c   Data          40  mc_config.o(.data)
    RampExtMngrHFParamsM1                    0x200004a4   Data          24  mc_config.o(.data)
    CircleLimitationM1                       0x200004bc   Data         180  mc_config.o(.data)
    pUSART                                   0x20000570   Data         316  mc_config.o(.data)
    bMCBootCompleted                         0x200006ac   Data           1  mc_tasks.o(.data)
    oMCInterface                             0x200006b4   Data           4  mc_tasks.o(.data)
    pSTC                                     0x200006b8   Data           4  mc_tasks.o(.data)
    pPIDSpeed                                0x200006bc   Data           4  mc_tasks.o(.data)
    pPIDIq                                   0x200006c0   Data           4  mc_tasks.o(.data)
    pPIDId                                   0x200006c4   Data           4  mc_tasks.o(.data)
    pBusSensorM1                             0x200006c8   Data           4  mc_tasks.o(.data)
    pTemperatureSensor                       0x200006cc   Data           4  mc_tasks.o(.data)
    pwmcHandle                               0x200006d0   Data           4  mc_tasks.o(.data)
    pMPM                                     0x200006d4   Data           4  mc_tasks.o(.data)
    pCLM                                     0x200006d8   Data           4  mc_tasks.o(.data)
    pREMNG                                   0x200006dc   Data           4  mc_tasks.o(.data)
    STM                                      0x200006e0   Data           6  mc_tasks.o(.data)
    RCM_currentHandle                        0x200006e6   Data           1  regular_conversion_manager.o(.data)
    RCM_UserConvHandle                       0x200006e7   Data           1  regular_conversion_manager.o(.data)
    RCM_UserConvState                        0x200006e8   Data           1  regular_conversion_manager.o(.data)
    RCM_UserConvValue                        0x200006ea   Data           2  regular_conversion_manager.o(.data)
    pMCP                                     0x200006f8   Data           4  ui_task.o(.data)
    uwTickPrio                               0x200006fc   Data           4  stm32g4xx_hal.o(.data)
    uwTickFreq                               0x20000700   Data           4  stm32g4xx_hal.o(.data)
    uwTick                                   0x20000704   Data           4  stm32g4xx_hal.o(.data)
    SystemCoreClock                          0x20000708   Data           4  system_stm32g4xx.o(.data)
    hadc1                                    0x2000070c   Data         108  main.o(.bss)
    hcordic                                  0x20000778   Data          40  main.o(.bss)
    htim1                                    0x200007a0   Data          64  main.o(.bss)
    huart2                                   0x200007e0   Data         140  main.o(.bss)
    hdma_tim1_ch4                            0x2000086c   Data          96  main.o(.bss)
    UI_Params                                0x200008cc   Data          24  mc_config.o(.bss)
    RealBusVoltageSensorFilterBufferM1       0x200008e4   Data          12  mc_config.o(.bss)
    FOCVars                                  0x200008f0   Data          38  mc_tasks.o(.bss)
    Mci                                      0x20000918   Data          28  mc_tasks.o(.bss)
    MCT                                      0x20000934   Data          84  mc_tasks.o(.bss)
    RCM_handle_array                         0x20000988   Data          16  regular_conversion_manager.o(.bss)
    RCM_CB_array                             0x20000998   Data          32  regular_conversion_manager.o(.bss)
    RCM_NoInj_array                          0x200009b8   Data          24  regular_conversion_manager.o(.bss)
    MCP_UI_Params                            0x200009d0   Data         176  ui_task.o(.bss)
    __initial_sp                             0x20000e80   Data           0  startup_stm32g431xx.o(STACK)



==============================================================================

Memory Map of the image

  Image Entry point : 0x080001d9

  Load Region LR_IROM1 (Base: 0x08000000, Size: 0x00008e4c, Max: 0x00020000, ABSOLUTE, COMPRESSED[0x00008920])

    Execution Region ER_IROM1 (Exec base: 0x08000000, Load base: 0x08000000, Size: 0x00008740, Max: 0x00020000, ABSOLUTE)

    Exec Addr    Load Addr    Size         Type   Attr      Idx    E Section Name        Object

    0x08000000   0x08000000   0x000001d8   Data   RO            3    RESET               startup_stm32g431xx.o
    0x080001d8   0x080001d8   0x00000000   Code   RO         6510  * .ARM.Collect$$$$00000000  mc_w.l(entry.o)
    0x080001d8   0x080001d8   0x00000004   Code   RO         6517    .ARM.Collect$$$$00000001  mc_w.l(entry2.o)
    0x080001dc   0x080001dc   0x00000004   Code   RO         6520    .ARM.Collect$$$$00000004  mc_w.l(entry5.o)
    0x080001e0   0x080001e0   0x00000000   Code   RO         6522    .ARM.Collect$$$$00000008  mc_w.l(entry7b.o)
    0x080001e0   0x080001e0   0x00000000   Code   RO         6524    .ARM.Collect$$$$0000000A  mc_w.l(entry8b.o)
    0x080001e0   0x080001e0   0x00000008   Code   RO         6525    .ARM.Collect$$$$0000000B  mc_w.l(entry9a.o)
    0x080001e8   0x080001e8   0x00000000   Code   RO         6527    .ARM.Collect$$$$0000000D  mc_w.l(entry10a.o)
    0x080001e8   0x080001e8   0x00000000   Code   RO         6529    .ARM.Collect$$$$0000000F  mc_w.l(entry11a.o)
    0x080001e8   0x080001e8   0x00000004   Code   RO         6518    .ARM.Collect$$$$00002712  mc_w.l(entry2.o)
    0x080001ec   0x080001ec   0x00000014   Code   RO         6493    .ccmram             libmc-keil_M4.lib(revup_ctrl.o)
    0x08000200   0x08000200   0x00000228   Code   RO         6503    .ccmram             libmc-keil_M4.lib(sto_pll_speed_pos_fdbk.o)
    0x08000428   0x08000428   0x00000024   Code   RO            4    .text               startup_stm32g431xx.o
    0x0800044c   0x0800044c   0x000003c8   Code   RO         6494    .text               libmc-keil_M4.lib(revup_ctrl.o)
    0x08000814   0x08000814   0x00000398   Code   RO         6504    .text               libmc-keil_M4.lib(sto_pll_speed_pos_fdbk.o)
    0x08000bac   0x08000bac   0x00000062   Code   RO         6513    .text               mc_w.l(uldiv.o)
    0x08000c0e   0x08000c0e   0x00000024   Code   RO         6515    .text               mc_w.l(memseta.o)
    0x08000c32   0x08000c32   0x0000001e   Code   RO         6531    .text               mc_w.l(llshl.o)
    0x08000c50   0x08000c50   0x00000020   Code   RO         6533    .text               mc_w.l(llushr.o)
    0x08000c70   0x08000c70   0x00000024   Code   RO         6535    .text               mc_w.l(init.o)
    0x08000c94   0x08000c94   0x00000056   Code   RO         6545    .text               mc_w.l(__dczerorl2.o)
    0x08000cea   0x08000cea   0x0000000c   Code   RO         1227    i.ADC1_2_IRQHandler  stm32g4xx_mc_it.o
    0x08000cf6   0x08000cf6   0x00000056   Code   RO         5141    i.Circle_Limitation  circle_limitation.o
    0x08000d4c   0x08000d4c   0x00000024   Code   RO         1228    i.DMA1_Channel1_IRQHandler  stm32g4xx_mc_it.o
    0x08000d70   0x08000d70   0x0000001c   Code   RO         1229    i.EXTI15_10_IRQHandler  stm32g4xx_mc_it.o
    0x08000d8c   0x08000d8c   0x00000002   Code   RO           13    i.Error_Handler     main.o
    0x08000d8e   0x08000d8e   0x0000002e   Code   RO         6336    i.FCP_CalcCRC       frame_communication_protocol.o
    0x08000dbc   0x08000dbc   0x0000002a   Code   RO         6337    i.FCP_Init          frame_communication_protocol.o
    0x08000de6   0x08000de6   0x0000000e   Code   RO         6339    i.FCP_SetClient     frame_communication_protocol.o
    0x08000df4   0x08000df4   0x00000034   Code   RO          712    i.FOC_CalcCurrRef   mc_tasks.o
    0x08000e28   0x08000e28   0x0000006c   Code   RO          713    i.FOC_Clear         mc_tasks.o
    0x08000e94   0x08000e94   0x00000002   Code   RO          714    i.FOC_InitAdditionalMethods  mc_tasks.o
    0x08000e96   0x08000e96   0x00000002   PAD
    0x08000e98   0x08000e98   0x000005ec   Code   RO         1881    i.HAL_ADCEx_InjectedConfigChannel  stm32g4xx_hal_adc_ex.o
    0x08001484   0x08001484   0x000000e0   Code   RO         1892    i.HAL_ADCEx_MultiModeConfigChannel  stm32g4xx_hal_adc_ex.o
    0x08001564   0x08001564   0x000004d0   Code   RO         1679    i.HAL_ADC_ConfigChannel  stm32g4xx_hal_adc.o
    0x08001a34   0x08001a34   0x0000023c   Code   RO         1688    i.HAL_ADC_Init      stm32g4xx_hal_adc.o
    0x08001c70   0x08001c70   0x0000007c   Code   RO         1525    i.HAL_ADC_MspInit   stm32g4xx_hal_msp.o
    0x08001cec   0x08001cec   0x00000034   Code   RO         3440    i.HAL_CORDIC_Init   stm32g4xx_hal_cordic.o
    0x08001d20   0x08001d20   0x0000002c   Code   RO         1527    i.HAL_CORDIC_MspInit  stm32g4xx_hal_msp.o
    0x08001d4c   0x08001d4c   0x00000128   Code   RO         2810    i.HAL_DMA_Init      stm32g4xx_hal_dma.o
    0x08001e74   0x08001e74   0x00000224   Code   RO         1609    i.HAL_GPIO_Init     stm32g4xx_hal_gpio.o
    0x08002098   0x08002098   0x0000000a   Code   RO         1613    i.HAL_GPIO_WritePin  stm32g4xx_hal_gpio.o
    0x080020a2   0x080020a2   0x00000002   PAD
    0x080020a4   0x080020a4   0x0000000c   Code   RO         2070    i.HAL_GetTick       stm32g4xx_hal.o
    0x080020b0   0x080020b0   0x00000010   Code   RO         2073    i.HAL_IncTick       stm32g4xx_hal.o
    0x080020c0   0x080020c0   0x0000001e   Code   RO         2074    i.HAL_Init          stm32g4xx_hal.o
    0x080020de   0x080020de   0x00000002   PAD
    0x080020e0   0x080020e0   0x00000044   Code   RO         2075    i.HAL_InitTick      stm32g4xx_hal.o
    0x08002124   0x08002124   0x00000040   Code   RO         1528    i.HAL_MspInit       stm32g4xx_hal_msp.o
    0x08002164   0x08002164   0x0000001e   Code   RO         3301    i.HAL_NVIC_EnableIRQ  stm32g4xx_hal_cortex.o
    0x08002182   0x08002182   0x00000002   PAD
    0x08002184   0x08002184   0x00000064   Code   RO         3307    i.HAL_NVIC_SetPriority  stm32g4xx_hal_cortex.o
    0x080021e8   0x080021e8   0x00000024   Code   RO         3308    i.HAL_NVIC_SetPriorityGrouping  stm32g4xx_hal_cortex.o
    0x0800220c   0x0800220c   0x000000c0   Code   RO         3057    i.HAL_PWREx_ControlVoltageScaling  stm32g4xx_hal_pwr_ex.o
    0x080022cc   0x080022cc   0x000002c4   Code   RO         2418    i.HAL_RCCEx_PeriphCLKConfig  stm32g4xx_hal_rcc_ex.o
    0x08002590   0x08002590   0x00000208   Code   RO         2294    i.HAL_RCC_ClockConfig  stm32g4xx_hal_rcc.o
    0x08002798   0x08002798   0x00000010   Code   RO         2297    i.HAL_RCC_EnableCSS  stm32g4xx_hal_rcc.o
    0x080027a8   0x080027a8   0x0000000c   Code   RO         2300    i.HAL_RCC_GetHCLKFreq  stm32g4xx_hal_rcc.o
    0x080027b4   0x080027b4   0x00000024   Code   RO         2302    i.HAL_RCC_GetPCLK1Freq  stm32g4xx_hal_rcc.o
    0x080027d8   0x080027d8   0x00000024   Code   RO         2303    i.HAL_RCC_GetPCLK2Freq  stm32g4xx_hal_rcc.o
    0x080027fc   0x080027fc   0x00000070   Code   RO         2304    i.HAL_RCC_GetSysClockFreq  stm32g4xx_hal_rcc.o
    0x0800286c   0x0800286c   0x000004ca   Code   RO         2307    i.HAL_RCC_OscConfig  stm32g4xx_hal_rcc.o
    0x08002d36   0x08002d36   0x00000002   Code   RO         3311    i.HAL_SYSTICK_Callback  stm32g4xx_hal_cortex.o
    0x08002d38   0x08002d38   0x0000002c   Code   RO         3312    i.HAL_SYSTICK_Config  stm32g4xx_hal_cortex.o
    0x08002d64   0x08002d64   0x00000008   Code   RO         3313    i.HAL_SYSTICK_IRQHandler  stm32g4xx_hal_cortex.o
    0x08002d6c   0x08002d6c   0x000000bc   Code   RO         4200    i.HAL_TIMEx_ConfigBreakDeadTime  stm32g4xx_hal_tim_ex.o
    0x08002e28   0x08002e28   0x000000dc   Code   RO         4201    i.HAL_TIMEx_ConfigBreakInput  stm32g4xx_hal_tim_ex.o
    0x08002f04   0x08002f04   0x00000068   Code   RO         4236    i.HAL_TIMEx_MasterConfigSynchronization  stm32g4xx_hal_tim_ex.o
    0x08002f6c   0x08002f6c   0x00000036   Code   RO         3545    i.HAL_TIM_Base_Init  stm32g4xx_hal_tim.o
    0x08002fa2   0x08002fa2   0x00000002   PAD
    0x08002fa4   0x08002fa4   0x000000a4   Code   RO         1530    i.HAL_TIM_Base_MspInit  stm32g4xx_hal_msp.o
    0x08003048   0x08003048   0x00000098   Code   RO         1531    i.HAL_TIM_MspPostInit  stm32g4xx_hal_msp.o
    0x080030e0   0x080030e0   0x00000370   Code   RO         3614    i.HAL_TIM_PWM_ConfigChannel  stm32g4xx_hal_tim.o
    0x08003450   0x08003450   0x00000036   Code   RO         3617    i.HAL_TIM_PWM_Init  stm32g4xx_hal_tim.o
    0x08003486   0x08003486   0x00000002   Code   RO         3619    i.HAL_TIM_PWM_MspInit  stm32g4xx_hal_tim.o
    0x08003488   0x08003488   0x00000056   Code   RO         3631    i.HAL_TIM_SlaveConfigSynchro  stm32g4xx_hal_tim.o
    0x080034de   0x080034de   0x0000003e   Code   RO         4973    i.HAL_UARTEx_DisableFifoMode  stm32g4xx_hal_uart_ex.o
    0x0800351c   0x0800351c   0x000000b8   Code   RO         4975    i.HAL_UARTEx_EnableFifoMode  stm32g4xx_hal_uart_ex.o
    0x080035d4   0x080035d4   0x000000ac   Code   RO         4978    i.HAL_UARTEx_SetRxFifoThreshold  stm32g4xx_hal_uart_ex.o
    0x08003680   0x08003680   0x000000ac   Code   RO         4979    i.HAL_UARTEx_SetTxFifoThreshold  stm32g4xx_hal_uart_ex.o
    0x0800372c   0x0800372c   0x0000006e   Code   RO         4632    i.HAL_UART_Init     stm32g4xx_hal_uart.o
    0x0800379a   0x0800379a   0x00000002   PAD
    0x0800379c   0x0800379c   0x00000060   Code   RO         1533    i.HAL_UART_MspInit  stm32g4xx_hal_msp.o
    0x080037fc   0x080037fc   0x00000068   Code   RO         1230    i.HardFault_Handler  stm32g4xx_mc_it.o
    0x08003864   0x08003864   0x00000074   Code   RO         6194    i.LL_TIM_OC_EnablePreload  r1_g4xx_pwm_curr_fdbk.o
    0x080038d8   0x080038d8   0x00000010   Code   RO          999    i.MCI_Clear_Iqdref  mc_interface.o
    0x080038e8   0x080038e8   0x00000008   Code   RO         1000    i.MCI_EncoderAlign  mc_interface.o
    0x080038f0   0x080038f0   0x00000078   Code   RO         1001    i.MCI_ExecBufferedCommands  mc_interface.o
    0x08003968   0x08003968   0x0000000e   Code   RO         1002    i.MCI_ExecSpeedRamp  mc_interface.o
    0x08003976   0x08003976   0x00000012   Code   RO         1003    i.MCI_ExecTorqueRamp  mc_interface.o
    0x08003988   0x08003988   0x00000006   Code   RO         1004    i.MCI_FaultAcknowledged  mc_interface.o
    0x0800398e   0x0800398e   0x00000010   Code   RO         1005    i.MCI_GetAvrgMecSpeedUnit  mc_interface.o
    0x0800399e   0x0800399e   0x00000004   Code   RO         1006    i.MCI_GetControlMode  mc_interface.o
    0x080039a2   0x080039a2   0x00000006   Code   RO         1009    i.MCI_GetIab        mc_interface.o
    0x080039a8   0x080039a8   0x00000006   Code   RO         1010    i.MCI_GetIalphabeta  mc_interface.o
    0x080039ae   0x080039ae   0x00000036   Code   RO         1011    i.MCI_GetImposedMotorDirection  mc_interface.o
    0x080039e4   0x080039e4   0x00000006   Code   RO         1012    i.MCI_GetIqd        mc_interface.o
    0x080039ea   0x080039ea   0x00000006   Code   RO         1014    i.MCI_GetIqdref     mc_interface.o
    0x080039f0   0x080039f0   0x00000010   Code   RO         1015    i.MCI_GetLastRampFinalSpeed  mc_interface.o
    0x08003a00   0x08003a00   0x00000006   Code   RO         1016    i.MCI_GetMecSpeedRefUnit  mc_interface.o
    0x08003a06   0x08003a06   0x00000006   Code   RO         1020    i.MCI_GetSTMState   mc_interface.o
    0x08003a0c   0x08003a0c   0x00000008   Code   RO         1022    i.MCI_GetTeref      mc_interface.o
    0x08003a14   0x08003a14   0x00000008   Code   RO         1023    i.MCI_GetValphabeta  mc_interface.o
    0x08003a1c   0x08003a1c   0x00000008   Code   RO         1024    i.MCI_GetVqd        mc_interface.o
    0x08003a24   0x08003a24   0x00000014   Code   RO         1025    i.MCI_Init          mc_interface.o
    0x08003a38   0x08003a38   0x00000014   Code   RO         1028    i.MCI_SetCurrentReferences  mc_interface.o
    0x08003a4c   0x08003a4c   0x0000000a   Code   RO         1029    i.MCI_SetIdref      mc_interface.o
    0x08003a56   0x08003a56   0x00000016   Code   RO         1030    i.MCI_StartMotor    mc_interface.o
    0x08003a6c   0x08003a6c   0x00000008   Code   RO         1031    i.MCI_StopMotor     mc_interface.o
    0x08003a74   0x08003a74   0x00000006   Code   RO         1032    i.MCI_StopRamp      mc_interface.o
    0x08003a7a   0x08003a7a   0x00000002   PAD
    0x08003a7c   0x08003a7c   0x0000004c   Code   RO          936    i.MCM_Clarke        mc_math.o
    0x08003ac8   0x08003ac8   0x00000084   Code   RO          937    i.MCM_Park          mc_math.o
    0x08003b4c   0x08003b4c   0x00000036   Code   RO          938    i.MCM_Rev_Park      mc_math.o
    0x08003b82   0x08003b82   0x00000002   PAD
    0x08003b84   0x08003b84   0x00000018   Code   RO          940    i.MCM_Trig_Functions  mc_math.o
    0x08003b9c   0x08003b9c   0x00000040   Code   RO          591    i.MCP_Init          motor_control_protocol.o
    0x08003bdc   0x08003bdc   0x00000008   Code   RO          592    i.MCP_OnTimeOut     motor_control_protocol.o
    0x08003be4   0x08003be4   0x00000668   Code   RO          593    i.MCP_ReceivedFrame  motor_control_protocol.o
    0x0800424c   0x0800424c   0x00000008   Code   RO          598    i.MCP_SentFrame     motor_control_protocol.o
    0x08004254   0x08004254   0x0000001a   Code   RO          599    i.MCP_WaitNextFrame  motor_control_protocol.o
    0x0800426e   0x0800426e   0x00000002   PAD
    0x08004270   0x08004270   0x0000000c   Code   RO          400    i.MC_GetSTMStateMotor1  mc_api.o
    0x0800427c   0x0800427c   0x00000020   Code   RO          717    i.MC_RunMotorControlTasks  mc_tasks.o
    0x0800429c   0x0800429c   0x00000040   Code   RO          718    i.MC_Scheduler      mc_tasks.o
    0x080042dc   0x080042dc   0x0000000c   Code   RO          410    i.MC_StartMotor1    mc_api.o
    0x080042e8   0x080042e8   0x0000000c   Code   RO          411    i.MC_StopMotor1     mc_api.o
    0x080042f4   0x080042f4   0x000001b8   Code   RO          719    i.MCboot            mc_tasks.o
    0x080044ac   0x080044ac   0x00000046   Code   RO         5198    i.MPM_CalcElMotorPower  motor_power_measurement.o
    0x080044f2   0x080044f2   0x0000001a   Code   RO         5199    i.MPM_Clear         motor_power_measurement.o
    0x0800450c   0x0800450c   0x00000006   Code   RO         5200    i.MPM_GetAvrgElMotorPowerW  motor_power_measurement.o
    0x08004512   0x08004512   0x00000002   PAD
    0x08004514   0x08004514   0x00000038   Code   RO          346    i.MX_MotorControl_Init  motorcontrol.o
    0x0800454c   0x0800454c   0x0000003a   Code   RO         5240    i.NTC_CalcAvTemp    ntc_temperature_sensor.o
    0x08004586   0x08004586   0x00000006   Code   RO         5242    i.NTC_Clear         ntc_temperature_sensor.o
    0x0800458c   0x0800458c   0x00000028   Code   RO         5243    i.NTC_GetAvTemp_C   ntc_temperature_sensor.o
    0x080045b4   0x080045b4   0x00000024   Code   RO         5245    i.NTC_Init          ntc_temperature_sensor.o
    0x080045d8   0x080045d8   0x00000018   Code   RO         5246    i.NTC_SetFaultState  ntc_temperature_sensor.o
    0x080045f0   0x080045f0   0x00000006   Code   RO         5351    i.PID_GetKD         pid_regulator.o
    0x080045f6   0x080045f6   0x00000006   Code   RO         5353    i.PID_GetKI         pid_regulator.o
    0x080045fc   0x080045fc   0x00000004   Code   RO         5354    i.PID_GetKIDivisor  pid_regulator.o
    0x08004600   0x08004600   0x00000006   Code   RO         5355    i.PID_GetKP         pid_regulator.o
    0x08004606   0x08004606   0x00000004   Code   RO         5356    i.PID_GetKPDivisor  pid_regulator.o
    0x0800460a   0x0800460a   0x00000014   Code   RO         5357    i.PID_HandleInit    pid_regulator.o
    0x0800461e   0x0800461e   0x00000004   Code   RO         5358    i.PID_SetIntegralTerm  pid_regulator.o
    0x08004622   0x08004622   0x00000004   Code   RO         5359    i.PID_SetKD         pid_regulator.o
    0x08004626   0x08004626   0x00000004   Code   RO         5361    i.PID_SetKI         pid_regulator.o
    0x0800462a   0x0800462a   0x00000004   Code   RO         5363    i.PID_SetKP         pid_regulator.o
    0x0800462e   0x0800462e   0x00000002   PAD
    0x08004630   0x08004630   0x00000080   Code   RO         5370    i.PI_Controller     pid_regulator.o
    0x080046b0   0x080046b0   0x00000060   Code   RO         5504    i.PQD_CalcElMotorPower  pqd_motor_power_measurement.o
    0x08004710   0x08004710   0x00000004   Code   RO         5528    i.PWMC_CheckOverCurrent  pwm_curr_fdbk.o
    0x08004714   0x08004714   0x00000042   Code   RO         5529    i.PWMC_CurrentReadingCalibr  pwm_curr_fdbk.o
    0x08004756   0x08004756   0x00000004   Code   RO         5530    i.PWMC_GetPhaseCurrents  pwm_curr_fdbk.o
    0x0800475a   0x0800475a   0x000001da   Code   RO         5548    i.PWMC_SetPhaseVoltage  pwm_curr_fdbk.o
    0x08004934   0x08004934   0x00000004   Code   RO         5549    i.PWMC_SwitchOffPWM  pwm_curr_fdbk.o
    0x08004938   0x08004938   0x00000004   Code   RO         5550    i.PWMC_SwitchOnPWM  pwm_curr_fdbk.o
    0x0800493c   0x0800493c   0x00000004   Code   RO         5551    i.PWMC_TurnOnLowSides  pwm_curr_fdbk.o
    0x08004940   0x08004940   0x0000004e   Code   RO         6195    i.R1_1ShuntMotorVarsInit  r1_g4xx_pwm_curr_fdbk.o
    0x0800498e   0x0800498e   0x00000036   Code   RO         6196    i.R1_BRK2_IRQHandler  r1_g4xx_pwm_curr_fdbk.o
    0x080049c4   0x080049c4   0x0000001c   Code   RO         6197    i.R1_BRK_IRQHandler  r1_g4xx_pwm_curr_fdbk.o
    0x080049e0   0x080049e0   0x0000033c   Code   RO         6198    i.R1_CalcDutyCycles  r1_g4xx_pwm_curr_fdbk.o
    0x08004d1c   0x08004d1c   0x00000078   Code   RO         6199    i.R1_CurrentReadingPolarization  r1_g4xx_pwm_curr_fdbk.o
    0x08004d94   0x08004d94   0x00000160   Code   RO         6200    i.R1_GetPhaseCurrents  r1_g4xx_pwm_curr_fdbk.o
    0x08004ef4   0x08004ef4   0x00000032   Code   RO         6201    i.R1_HFCurrentsPolarization  r1_g4xx_pwm_curr_fdbk.o
    0x08004f26   0x08004f26   0x00000002   PAD
    0x08004f28   0x08004f28   0x00000410   Code   RO         6202    i.R1_Init           r1_g4xx_pwm_curr_fdbk.o
    0x08005338   0x08005338   0x00000026   Code   RO         6203    i.R1_IsOverCurrentOccurred  r1_g4xx_pwm_curr_fdbk.o
    0x0800535e   0x0800535e   0x00000028   Code   RO         6204    i.R1_SetADCSampPointPolarization  r1_g4xx_pwm_curr_fdbk.o
    0x08005386   0x08005386   0x00000002   PAD
    0x08005388   0x08005388   0x0000006c   Code   RO         6205    i.R1_SetAOReferenceVoltage  r1_g4xx_pwm_curr_fdbk.o
    0x080053f4   0x080053f4   0x00000084   Code   RO         6206    i.R1_SwitchOffPWM   r1_g4xx_pwm_curr_fdbk.o
    0x08005478   0x08005478   0x000000ea   Code   RO         6207    i.R1_SwitchOnPWM    r1_g4xx_pwm_curr_fdbk.o
    0x08005562   0x08005562   0x000000dc   Code   RO         6208    i.R1_TIMxInit       r1_g4xx_pwm_curr_fdbk.o
    0x0800563e   0x0800563e   0x00000002   PAD
    0x08005640   0x08005640   0x000000dc   Code   RO         6209    i.R1_TIMx_UP_IRQHandler  r1_g4xx_pwm_curr_fdbk.o
    0x0800571c   0x0800571c   0x00000052   Code   RO         6210    i.R1_TurnOnLowSides  r1_g4xx_pwm_curr_fdbk.o
    0x0800576e   0x0800576e   0x00000002   PAD
    0x08005770   0x08005770   0x00000094   Code   RO          851    i.RCM_ExecNextConv  regular_conversion_manager.o
    0x08005804   0x08005804   0x00000144   Code   RO          852    i.RCM_ExecRegularConv  regular_conversion_manager.o
    0x08005948   0x08005948   0x00000044   Code   RO          853    i.RCM_ExecUserConv  regular_conversion_manager.o
    0x0800598c   0x0800598c   0x00000038   Code   RO          857    i.RCM_ReadOngoingConv  regular_conversion_manager.o
    0x080059c4   0x080059c4   0x00000130   Code   RO          858    i.RCM_RegisterRegConv  regular_conversion_manager.o
    0x08005af4   0x08005af4   0x0000002c   Code   RO         5774    i.REMNG_Calc        ramp_ext_mngr.o
    0x08005b20   0x08005b20   0x00000082   Code   RO         5775    i.REMNG_ExecRamp    ramp_ext_mngr.o
    0x08005ba2   0x08005ba2   0x00000010   Code   RO         5777    i.REMNG_Init        ramp_ext_mngr.o
    0x08005bb2   0x08005bb2   0x0000000e   Code   RO         5778    i.REMNG_RampCompleted  ramp_ext_mngr.o
    0x08005bc0   0x08005bc0   0x00000064   Code   RO         5726    i.RVBS_CalcAvVbus   r_divider_bus_voltage_sensor.o
    0x08005c24   0x08005c24   0x00000018   Code   RO         5728    i.RVBS_CheckFaultState  r_divider_bus_voltage_sensor.o
    0x08005c3c   0x08005c3c   0x0000002c   Code   RO         5729    i.RVBS_Clear        r_divider_bus_voltage_sensor.o
    0x08005c68   0x08005c68   0x00000016   Code   RO         5730    i.RVBS_Init         r_divider_bus_voltage_sensor.o
    0x08005c7e   0x08005c7e   0x00000006   Code   RO         5835    i.SPD_GetAvrgMecSpeedUnit  speed_pos_fdbk.o
    0x08005c84   0x08005c84   0x00000006   Code   RO         5836    i.SPD_GetElAngle    speed_pos_fdbk.o
    0x08005c8a   0x08005c8a   0x00000006   Code   RO         5839    i.SPD_GetInstElSpeedDpp  speed_pos_fdbk.o
    0x08005c90   0x08005c90   0x00000014   Code   RO         5841    i.SPD_GetS16Speed   speed_pos_fdbk.o
    0x08005ca4   0x08005ca4   0x00000060   Code   RO         5842    i.SPD_IsMecSpeedReliable  speed_pos_fdbk.o
    0x08005d04   0x08005d04   0x0000005c   Code   RO         5912    i.STC_CalcTorqueReference  speed_torq_ctrl.o
    0x08005d60   0x08005d60   0x00000010   Code   RO         5913    i.STC_Clear         speed_torq_ctrl.o
    0x08005d70   0x08005d70   0x00000092   Code   RO         5914    i.STC_ExecRamp      speed_torq_ctrl.o
    0x08005e02   0x08005e02   0x00000010   Code   RO         5915    i.STC_ForceSpeedReferenceToCurrentSpeed  speed_torq_ctrl.o
    0x08005e12   0x08005e12   0x00000010   Code   RO         5917    i.STC_GetDefaultIqdref  speed_torq_ctrl.o
    0x08005e22   0x08005e22   0x00000004   Code   RO         5918    i.STC_GetMaxAppPositiveMecSpeedUnit  speed_torq_ctrl.o
    0x08005e26   0x08005e26   0x0000000c   Code   RO         5919    i.STC_GetMecSpeedRefUnit  speed_torq_ctrl.o
    0x08005e32   0x08005e32   0x00000006   Code   RO         5920    i.STC_GetMecSpeedRefUnitDefault  speed_torq_ctrl.o
    0x08005e38   0x08005e38   0x00000006   Code   RO         5921    i.STC_GetMinAppNegativeMecSpeedUnit  speed_torq_ctrl.o
    0x08005e3e   0x08005e3e   0x00000004   Code   RO         5922    i.STC_GetSpeedSensor  speed_torq_ctrl.o
    0x08005e42   0x08005e42   0x0000000c   Code   RO         5923    i.STC_GetTorqueRef  speed_torq_ctrl.o
    0x08005e4e   0x08005e4e   0x00000020   Code   RO         5924    i.STC_Init          speed_torq_ctrl.o
    0x08005e6e   0x08005e6e   0x00000008   Code   RO         5926    i.STC_SetControlMode  speed_torq_ctrl.o
    0x08005e76   0x08005e76   0x00000004   Code   RO         5928    i.STC_SetSpeedSensor  speed_torq_ctrl.o
    0x08005e7a   0x08005e7a   0x00000008   Code   RO         5929    i.STC_StopRamp      speed_torq_ctrl.o
    0x08005e82   0x08005e82   0x00000016   Code   RO         6044    i.STM_FaultAcknowledged  state_machine.o
    0x08005e98   0x08005e98   0x00000036   Code   RO         6045    i.STM_FaultProcessing  state_machine.o
    0x08005ece   0x08005ece   0x0000000a   Code   RO         6046    i.STM_GetFaultState  state_machine.o
    0x08005ed8   0x08005ed8   0x00000004   Code   RO         6047    i.STM_GetState      state_machine.o
    0x08005edc   0x08005edc   0x0000000a   Code   RO         6048    i.STM_Init          state_machine.o
    0x08005ee6   0x08005ee6   0x000000fe   Code   RO         6049    i.STM_NextState     state_machine.o
    0x08005fe4   0x08005fe4   0x00000028   Code   RO         1231    i.SysTick_Handler   stm32g4xx_mc_it.o
    0x0800600c   0x0800600c   0x0000001c   Code   RO         5062    i.SystemInit        system_stm32g4xx.o
    0x08006028   0x08006028   0x00000044   Code   RO         1232    i.TIM1_BRK_TIM15_IRQHandler  stm32g4xx_mc_it.o
    0x0800606c   0x0800606c   0x00000018   Code   RO         1233    i.TIM1_UP_TIM16_IRQHandler  stm32g4xx_mc_it.o
    0x08006084   0x08006084   0x000000b4   Code   RO         3635    i.TIM_Base_SetConfig  stm32g4xx_hal_tim.o
    0x08006138   0x08006138   0x00000090   Code   RO         3647    i.TIM_OC2_SetConfig  stm32g4xx_hal_tim.o
    0x080061c8   0x080061c8   0x000000f8   Code   RO         3648    i.TIM_SlaveTimer_SetConfig  stm32g4xx_hal_tim.o
    0x080062c0   0x080062c0   0x00000014   Code   RO          720    i.TSK_ChargeBootCapDelayHasElapsedM1  mc_tasks.o
    0x080062d4   0x080062d4   0x00000020   Code   RO          721    i.TSK_HardwareFaultTask  mc_tasks.o
    0x080062f4   0x080062f4   0x00000160   Code   RO          722    i.TSK_HighFrequencyTask  mc_tasks.o
    0x08006454   0x08006454   0x0000029c   Code   RO          723    i.TSK_MediumFrequencyTaskM1  mc_tasks.o
    0x080066f0   0x080066f0   0x00000020   Code   RO          724    i.TSK_SafetyTask    mc_tasks.o
    0x08006710   0x08006710   0x00000098   Code   RO          725    i.TSK_SafetyTask_PWMOFF  mc_tasks.o
    0x080067a8   0x080067a8   0x0000000c   Code   RO          726    i.TSK_SetChargeBootCapDelayM1  mc_tasks.o
    0x080067b4   0x080067b4   0x0000000c   Code   RO          727    i.TSK_SetStopPermanencyTimeM1  mc_tasks.o
    0x080067c0   0x080067c0   0x00000014   Code   RO          728    i.TSK_StopPermanencyTimeHasElapsedM1  mc_tasks.o
    0x080067d4   0x080067d4   0x000000da   Code   RO         4645    i.UART_AdvFeatureConfig  stm32g4xx_hal_uart.o
    0x080068ae   0x080068ae   0x00000062   Code   RO         4646    i.UART_CheckIdleState  stm32g4xx_hal_uart.o
    0x08006910   0x08006910   0x000008b2   Code   RO         4661    i.UART_SetConfig    stm32g4xx_hal_uart.o
    0x080071c2   0x080071c2   0x00000076   Code   RO         4666    i.UART_WaitOnFlagUntilTimeout  stm32g4xx_hal_uart.o
    0x08007238   0x08007238   0x00000008   Code   RO         6416    i.UFCP_AbortReceive  usart_frame_communication_protocol.o
    0x08007240   0x08007240   0x00000004   Code   RO         6417    i.UFCP_Init         usart_frame_communication_protocol.o
    0x08007244   0x08007244   0x00000014   Code   RO         6418    i.UFCP_OVR_IRQ_Handler  usart_frame_communication_protocol.o
    0x08007258   0x08007258   0x000000c0   Code   RO         6419    i.UFCP_RX_IRQ_Handler  usart_frame_communication_protocol.o
    0x08007318   0x08007318   0x00000028   Code   RO         6420    i.UFCP_Receive      usart_frame_communication_protocol.o
    0x08007340   0x08007340   0x00000056   Code   RO         6421    i.UFCP_Send         usart_frame_communication_protocol.o
    0x08007396   0x08007396   0x00000064   Code   RO         6423    i.UFCP_TX_IRQ_Handler  usart_frame_communication_protocol.o
    0x080073fa   0x080073fa   0x0000006c   Code   RO         1406    i.UI_ExecCmd        user_interface.o
    0x08007466   0x08007466   0x00000002   PAD
    0x08007468   0x08007468   0x00000030   Code   RO         1407    i.UI_ExecSpeedRamp  user_interface.o
    0x08007498   0x08007498   0x00000012   Code   RO         1408    i.UI_ExecTorqueRamp  user_interface.o
    0x080074aa   0x080074aa   0x00000004   Code   RO         1409    i.UI_GetMPInfo      user_interface.o
    0x080074ae   0x080074ae   0x00000002   PAD
    0x080074b0   0x080074b0   0x00000550   Code   RO         1410    i.UI_GetReg         user_interface.o
    0x08007a00   0x08007a00   0x00000048   Code   RO         1411    i.UI_GetRevupData   user_interface.o
    0x08007a48   0x08007a48   0x00000004   Code   RO         1412    i.UI_GetSelectedMC  user_interface.o
    0x08007a4c   0x08007a4c   0x00000018   Code   RO         1325    i.UI_HandleStartStopButton_cb  ui_task.o
    0x08007a64   0x08007a64   0x00000014   Code   RO         1414    i.UI_Init           user_interface.o
    0x08007a78   0x08007a78   0x0000002c   Code   RO         1327    i.UI_Scheduler      ui_task.o
    0x08007aa4   0x08007aa4   0x00000010   Code   RO         1415    i.UI_SelectMC       user_interface.o
    0x08007ab4   0x08007ab4   0x0000000c   Code   RO         1330    i.UI_SerialCommunicationTimeOutStart  ui_task.o
    0x08007ac0   0x08007ac0   0x0000000c   Code   RO         1331    i.UI_SerialCommunicationTimeOutStop  ui_task.o
    0x08007acc   0x08007acc   0x00000018   Code   RO         1416    i.UI_SetCurrentReferences  user_interface.o
    0x08007ae4   0x08007ae4   0x00000244   Code   RO         1417    i.UI_SetReg         user_interface.o
    0x08007d28   0x08007d28   0x00000036   Code   RO         1418    i.UI_SetRevupData   user_interface.o
    0x08007d5e   0x08007d5e   0x00000002   PAD
    0x08007d60   0x08007d60   0x00000070   Code   RO         1333    i.UI_TaskInit       ui_task.o
    0x08007dd0   0x08007dd0   0x00000068   Code   RO         1234    i.USART2_IRQHandler  stm32g4xx_mc_it.o
    0x08007e38   0x08007e38   0x0000000a   Code   RO         5100    i.VBS_GetAvBusVoltage_V  bus_voltage_sensor.o
    0x08007e42   0x08007e42   0x00000004   Code   RO         5101    i.VBS_GetAvBusVoltage_d  bus_voltage_sensor.o
    0x08007e46   0x08007e46   0x0000009c   Code   RO         6098    i.VSS_CalcAvrgMecSpeedUnit  virtual_speed_sensor.o
    0x08007ee2   0x08007ee2   0x0000009e   Code   RO         6099    i.VSS_CalcElAngle   virtual_speed_sensor.o
    0x08007f80   0x08007f80   0x0000002c   Code   RO         6100    i.VSS_Clear         virtual_speed_sensor.o
    0x08007fac   0x08007fac   0x00000008   Code   RO         6102    i.VSS_Init          virtual_speed_sensor.o
    0x08007fb4   0x08007fb4   0x00000008   Code   RO         6105    i.VSS_SetCopyObserver  virtual_speed_sensor.o
    0x08007fbc   0x08007fbc   0x0000007c   Code   RO         6107    i.VSS_SetMecAcceleration  virtual_speed_sensor.o
    0x08008038   0x08008038   0x0000000e   Code   RO         6108    i.VSS_SetMecAngle   virtual_speed_sensor.o
    0x08008046   0x08008046   0x0000001c   Code   RO         6109    i.VSS_SetStartTransition  virtual_speed_sensor.o
    0x08008062   0x08008062   0x00000006   Code   RO         6110    i.VSS_TransitionEnded  virtual_speed_sensor.o
    0x08008068   0x08008068   0x0000000e   Code   RO         6539    i.__scatterload_copy  mc_w.l(handlers.o)
    0x08008076   0x08008076   0x00000002   Code   RO         6540    i.__scatterload_null  mc_w.l(handlers.o)
    0x08008078   0x08008078   0x0000000e   Code   RO         6541    i.__scatterload_zeroinit  mc_w.l(handlers.o)
    0x08008086   0x08008086   0x00000002   PAD
    0x08008088   0x08008088   0x00000028   Code   RO         5780    i.getScalingFactor  ramp_ext_mngr.o
    0x080080b0   0x080080b0   0x0000041c   Code   RO           15    i.main              main.o
    0x080084cc   0x080084cc   0x000000b8   Code   RO          729    i.mc_lock_pins      mc_tasks.o
    0x08008584   0x08008584   0x0000006c   Code   RO         5690    i.startTimers       pwm_common.o
    0x080085f0   0x080085f0   0x00000062   Code   RO         5691    i.waitForPolarizationEnd  pwm_common.o
    0x08008652   0x08008652   0x00000020   Data   RO          347    .constdata          motorcontrol.o
    0x08008672   0x08008672   0x00000002   PAD
    0x08008674   0x08008674   0x00000002   Data   RO          731    .constdata          mc_tasks.o
    0x08008676   0x08008676   0x00000002   PAD
    0x08008678   0x08008678   0x00000050   Data   RO         1303    .constdata          mc_parameters.o
    0x080086c8   0x080086c8   0x00000010   Data   RO         5063    .constdata          system_stm32g4xx.o
    0x080086d8   0x080086d8   0x00000008   Data   RO         5064    .constdata          system_stm32g4xx.o
    0x080086e0   0x080086e0   0x00000038   Data   RO         6211    .constdata          r1_g4xx_pwm_curr_fdbk.o
    0x08008718   0x08008718   0x00000006   Data   RO         6424    .constdata          usart_frame_communication_protocol.o
    0x0800871e   0x0800871e   0x00000002   PAD
    0x08008720   0x08008720   0x00000020   Data   RO         6537    Region$$Table       anon$$obj.o


    Execution Region RW_IRAM1 (Exec base: 0x20000000, Load base: 0x08008740, Size: 0x00000e80, Max: 0x00008000, ABSOLUTE, COMPRESSED[0x000001e0])

    Exec Addr    Load Addr    Size         Type   Attr      Idx    E Section Name        Object

    0x20000000   COMPRESSED   0x0000000c   Data   RW          348    .data               motorcontrol.o
    0x2000000c   COMPRESSED   0x00000008   Data   RW          600    .data               motor_control_protocol.o
    0x20000014   COMPRESSED   0x00000114   Data   RW          668    .data               mc_config.o
    0x20000128   COMPRESSED   0x0000002c   Data   RW          670    .data               mc_config.o
    0x20000154   COMPRESSED   0x0000002c   Data   RW          671    .data               mc_config.o
    0x20000180   COMPRESSED   0x0000002c   Data   RW          672    .data               mc_config.o
    0x200001ac   COMPRESSED   0x00000034   Data   RW          673    .data               mc_config.o
    0x200001e0   COMPRESSED   0x00000078   Data   RW          674    .data               mc_config.o
    0x20000258   COMPRESSED   0x00000088   Data   RW          675    .data               mc_config.o
    0x200002e0   COMPRESSED   0x00000038   Data   RW          676    .data               mc_config.o
    0x20000318   COMPRESSED   0x00000128   Data   RW          677    .data               mc_config.o
    0x20000440   COMPRESSED   0x00000014   Data   RW          679    .data               mc_config.o
    0x20000454   COMPRESSED   0x00000028   Data   RW          680    .data               mc_config.o
    0x2000047c   COMPRESSED   0x00000028   Data   RW          681    .data               mc_config.o
    0x200004a4   COMPRESSED   0x00000018   Data   RW          682    .data               mc_config.o
    0x200004bc   COMPRESSED   0x000000b4   Data   RW          683    .data               mc_config.o
    0x20000570   COMPRESSED   0x0000013c   Data   RW          684    .data               mc_config.o
    0x200006ac   COMPRESSED   0x0000003a   Data   RW          732    .data               mc_tasks.o
    0x200006e6   COMPRESSED   0x00000006   Data   RW          862    .data               regular_conversion_manager.o
    0x200006ec   COMPRESSED   0x00000001   Data   RW         1235    .data               stm32g4xx_mc_it.o
    0x200006ed   COMPRESSED   0x00000003   PAD
    0x200006f0   COMPRESSED   0x0000000c   Data   RW         1335    .data               ui_task.o
    0x200006fc   COMPRESSED   0x0000000c   Data   RW         2094    .data               stm32g4xx_hal.o
    0x20000708   COMPRESSED   0x00000004   Data   RW         5065    .data               system_stm32g4xx.o
    0x2000070c        -       0x00000160   Zero   RW           16    .bss                main.o
    0x2000086c        -       0x00000060   Zero   RW           17    .bss                main.o
    0x200008cc        -       0x00000018   Zero   RW          666    .bss                mc_config.o
    0x200008e4        -       0x0000000c   Zero   RW          667    .bss                mc_config.o
    0x200008f0        -       0x00000098   Zero   RW          730    .bss                mc_tasks.o
    0x20000988        -       0x00000048   Zero   RW          861    .bss                regular_conversion_manager.o
    0x200009d0        -       0x000000b0   Zero   RW         1334    .bss                ui_task.o
    0x20000a80        -       0x00000400   Zero   RW            1    STACK               startup_stm32g431xx.o

